

Microchip Technology PIC18 LITE Macro Assembler V1.12 build 49521 
                                                                                               Wed Feb 12 08:28:46 2014

HI-TECH Software Omniscient Code Generator (Lite mode) build 49521
     1  0000                     opt subtitle "HI-TECH Software Omniscient Code Generator (Lite mode) build 49521"
     2                           opt subtitle "HI-TECH Software Omniscient Code Generator (Lite mode) build 49521"
     3                           
     4                           opt pagewidth 120
     5                           
     6                           	opt lm
     7                           
     8  0000                     porta	equ	0F80h
     9  0000                     portb	equ	0F81h
    10  0000                     portc	equ	0F82h
    11  0000                     portd	equ	0F83h
    12  0000                     porte	equ	0F84h
    13  0000                     lata	equ	0F89h
    14  0000                     latb	equ	0F8Ah
    15  0000                     latc	equ	0F8Bh
    16  0000                     latd	equ	0F8Ch
    17  0000                     late	equ	0F8Dh
    18  0000                     trisa	equ	0F92h
    19  0000                     trisb	equ	0F93h
    20  0000                     trisc	equ	0F94h
    21  0000                     trisd	equ	0F95h
    22  0000                     trise	equ	0F96h
    23  0000                     pie1	equ	0F9Dh
    24  0000                     pir1	equ	0F9Eh
    25  0000                     ipr1	equ	0F9Fh
    26  0000                     pie2	equ	0FA0h
    27  0000                     pir2	equ	0FA1h
    28  0000                     ipr2	equ	0FA2h
    29  0000                     t3con	equ	0FB1h
    30  0000                     tmr3l	equ	0FB2h
    31  0000                     tmr3h	equ	0FB3h
    32  0000                     ccp1con	equ	0FBDh
    33  0000                     ccpr1l	equ	0FBEh
    34  0000                     ccpr1h	equ	0FBFh
    35  0000                     adcon1	equ	0FC1h
    36  0000                     adcon0	equ	0FC2h
    37  0000                     adresl	equ	0FC3h
    38  0000                     adresh	equ	0FC4h
    39  0000                     sspcon2	equ	0FC5h
    40  0000                     sspcon1	equ	0FC6h
    41  0000                     sspstat	equ	0FC7h
    42  0000                     sspadd	equ	0FC8h
    43  0000                     sspbuf	equ	0FC9h
    44  0000                     t2con	equ	0FCAh
    45  0000                     pr2	equ	0FCBh
    46  0000                     tmr2	equ	0FCCh
    47  0000                     t1con	equ	0FCDh
    48  0000                     tmr1l	equ	0FCEh
    49  0000                     tmr1h	equ	0FCFh
    50  0000                     rcon	equ	0FD0h
    51  0000                     wdtcon	equ	0FD1h
    52  0000                     lvdcon	equ	0FD2h
    53  0000                     osccon	equ	0FD3h
    54  0000                     t0con	equ	0FD5h
    55  0000                     tmr0l	equ	0FD6h
    56  0000                     tmr0h	equ	0FD7h
    57  0000                     status	equ	0FD8h
    58  0000                     fsr2	equ	0FD9h
    59  0000                     fsr2l	equ	0FD9h
    60  0000                     fsr2h	equ	0FDAh
    61  0000                     plusw2	equ	0FDBh
    62  0000                     preinc2	equ	0FDCh
    63  0000                     postdec2	equ	0FDDh
    64  0000                     postinc2	equ	0FDEh
    65  0000                     indf2	equ	0FDFh
    66  0000                     bsr	equ	0FE0h
    67  0000                     fsr1	equ	0FE1h
    68  0000                     fsr1l	equ	0FE1h
    69  0000                     fsr1h	equ	0FE2h
    70  0000                     plusw1	equ	0FE3h
    71  0000                     preinc1	equ	0FE4h
    72  0000                     postdec1	equ	0FE5h
    73  0000                     postinc1	equ	0FE6h
    74  0000                     indf1	equ	0FE7h
    75  0000                     wreg	equ	0FE8h
    76  0000                     fsr0	equ	0FE9h
    77  0000                     fsr0l	equ	0FE9h
    78  0000                     fsr0h	equ	0FEAh
    79  0000                     plusw0	equ	0FEBh
    80  0000                     preinc0	equ	0FECh
    81  0000                     postdec0	equ	0FEDh
    82  0000                     postinc0	equ	0FEEh
    83  0000                     indf0	equ	0FEFh
    84  0000                     intcon3	equ	0FF0h
    85  0000                     intcon2	equ	0FF1h
    86  0000                     intcon	equ	0FF2h
    87  0000                     prod	equ	0FF3h
    88  0000                     prodl	equ	0FF3h
    89  0000                     prodh	equ	0FF4h
    90  0000                     tablat	equ	0FF5h
    91  0000                     tblptr	equ	0FF6h
    92  0000                     tblptrl	equ	0FF6h
    93  0000                     tblptrh	equ	0FF7h
    94  0000                     tblptru	equ	0FF8h
    95  0000                     pcl	equ	0FF9h
    96  0000                     pclat	equ	0FFAh
    97  0000                     pclath	equ	0FFAh
    98  0000                     pclatu	equ	0FFBh
    99  0000                     stkptr	equ	0FFCh
   100  0000                     tosl	equ	0FFDh
   101  0000                     tosh	equ	0FFEh
   102  0000                     tosu	equ	0FFFh
   103                           opt subtitle "HI-TECH Software Omniscient Code Generator (Lite mode) build 49521"
   104                           
   105  0000                     	endm
   106                           opt subtitle "HI-TECH Software Omniscient Code Generator (Lite mode) build 49521"
   107                           
   108                           opt pagewidth 120
   109  0000                     RXERRCNT equ 0E41h ;# 
   110                           opt subtitle "HI-TECH Software Omniscient Code Generator (Lite mode) build 49521"
   111  0000                     TXERRCNT equ 0E42h ;# 
   112                           opt subtitle "HI-TECH Software Omniscient Code Generator (Lite mode) build 49521"
   113  0000                     BRGCON1 equ 0E43h ;# 
   114                           opt subtitle "HI-TECH Software Omniscient Code Generator (Lite mode) build 49521"
   115  0000                     BRGCON2 equ 0E44h ;# 
   116                           opt subtitle "HI-TECH Software Omniscient Code Generator (Lite mode) build 49521"
   117  0000                     BRGCON3 equ 0E45h ;# 
   118                           opt subtitle "HI-TECH Software Omniscient Code Generator (Lite mode) build 49521"
   119  0000                     RXFCON0 equ 0E46h ;# 
   120                           opt subtitle "HI-TECH Software Omniscient Code Generator (Lite mode) build 49521"
   121  0000                     RXFCON1 equ 0E47h ;# 
   122                           opt subtitle "HI-TECH Software Omniscient Code Generator (Lite mode) build 49521"
   123  0000                     RXF6SIDH equ 0E48h ;# 
   124                           opt subtitle "HI-TECH Software Omniscient Code Generator (Lite mode) build 49521"
   125  0000                     RXF6SIDL equ 0E49h ;# 
   126                           opt subtitle "HI-TECH Software Omniscient Code Generator (Lite mode) build 49521"
   127  0000                     RXF6EIDH equ 0E4Ah ;# 
   128                           opt subtitle "HI-TECH Software Omniscient Code Generator (Lite mode) build 49521"
   129  0000                     RXF6EIDL equ 0E4Bh ;# 
   130                           opt subtitle "HI-TECH Software Omniscient Code Generator (Lite mode) build 49521"
   131  0000                     RXF7SIDH equ 0E4Ch ;# 
   132                           opt subtitle "HI-TECH Software Omniscient Code Generator (Lite mode) build 49521"
   133  0000                     RXF7SIDL equ 0E4Dh ;# 
   134                           opt subtitle "HI-TECH Software Omniscient Code Generator (Lite mode) build 49521"
   135  0000                     RXF7EIDH equ 0E4Eh ;# 
   136                           opt subtitle "HI-TECH Software Omniscient Code Generator (Lite mode) build 49521"
   137  0000                     RXF7EIDL equ 0E4Fh ;# 
   138                           opt subtitle "HI-TECH Software Omniscient Code Generator (Lite mode) build 49521"
   139  0000                     RXF8SIDH equ 0E50h ;# 
   140                           opt subtitle "HI-TECH Software Omniscient Code Generator (Lite mode) build 49521"
   141  0000                     RXF8SIDL equ 0E51h ;# 
   142                           opt subtitle "HI-TECH Software Omniscient Code Generator (Lite mode) build 49521"
   143  0000                     RXF8EIDH equ 0E52h ;# 
   144                           opt subtitle "HI-TECH Software Omniscient Code Generator (Lite mode) build 49521"
   145  0000                     RXF8EIDL equ 0E53h ;# 
   146                           opt subtitle "HI-TECH Software Omniscient Code Generator (Lite mode) build 49521"
   147  0000                     RXF9SIDH equ 0E54h ;# 
   148                           opt subtitle "HI-TECH Software Omniscient Code Generator (Lite mode) build 49521"
   149  0000                     RXF9SIDL equ 0E55h ;# 
   150                           opt subtitle "HI-TECH Software Omniscient Code Generator (Lite mode) build 49521"
   151  0000                     RXF9EIDH equ 0E56h ;# 
   152                           opt subtitle "HI-TECH Software Omniscient Code Generator (Lite mode) build 49521"
   153  0000                     RXF9EIDL equ 0E57h ;# 
   154                           opt subtitle "HI-TECH Software Omniscient Code Generator (Lite mode) build 49521"
   155  0000                     RXF10SIDH equ 0E58h ;# 
   156                           opt subtitle "HI-TECH Software Omniscient Code Generator (Lite mode) build 49521"
   157  0000                     RXF10SIDL equ 0E59h ;# 
   158                           opt subtitle "HI-TECH Software Omniscient Code Generator (Lite mode) build 49521"
   159  0000                     RXF10EIDH equ 0E5Ah ;# 
   160                           opt subtitle "HI-TECH Software Omniscient Code Generator (Lite mode) build 49521"
   161  0000                     RXF10EIDL equ 0E5Bh ;# 
   162                           opt subtitle "HI-TECH Software Omniscient Code Generator (Lite mode) build 49521"
   163  0000                     RXF11SIDH equ 0E5Ch ;# 
   164                           opt subtitle "HI-TECH Software Omniscient Code Generator (Lite mode) build 49521"
   165  0000                     RXF11SIDL equ 0E5Dh ;# 
   166                           opt subtitle "HI-TECH Software Omniscient Code Generator (Lite mode) build 49521"
   167  0000                     RXF11EIDH equ 0E5Eh ;# 
   168                           opt subtitle "HI-TECH Software Omniscient Code Generator (Lite mode) build 49521"
   169  0000                     RXF11EIDL equ 0E5Fh ;# 
   170                           opt subtitle "HI-TECH Software Omniscient Code Generator (Lite mode) build 49521"
   171  0000                     RXF12SIDH equ 0E60h ;# 
   172                           opt subtitle "HI-TECH Software Omniscient Code Generator (Lite mode) build 49521"
   173  0000                     RXF12SIDL equ 0E61h ;# 
   174                           opt subtitle "HI-TECH Software Omniscient Code Generator (Lite mode) build 49521"
   175  0000                     RXF12EIDH equ 0E62h ;# 
   176                           opt subtitle "HI-TECH Software Omniscient Code Generator (Lite mode) build 49521"
   177  0000                     RXF12EIDL equ 0E63h ;# 
   178                           opt subtitle "HI-TECH Software Omniscient Code Generator (Lite mode) build 49521"
   179  0000                     RXF13SIDH equ 0E64h ;# 
   180                           opt subtitle "HI-TECH Software Omniscient Code Generator (Lite mode) build 49521"
   181  0000                     RXF13SIDL equ 0E65h ;# 
   182                           opt subtitle "HI-TECH Software Omniscient Code Generator (Lite mode) build 49521"
   183  0000                     RXF13EIDH equ 0E66h ;# 
   184                           opt subtitle "HI-TECH Software Omniscient Code Generator (Lite mode) build 49521"
   185  0000                     RXF13EIDL equ 0E67h ;# 
   186                           opt subtitle "HI-TECH Software Omniscient Code Generator (Lite mode) build 49521"
   187  0000                     RXF14SIDH equ 0E68h ;# 
   188                           opt subtitle "HI-TECH Software Omniscient Code Generator (Lite mode) build 49521"
   189  0000                     RXF14SIDL equ 0E69h ;# 
   190                           opt subtitle "HI-TECH Software Omniscient Code Generator (Lite mode) build 49521"
   191  0000                     RXF14EIDH equ 0E6Ah ;# 
   192                           opt subtitle "HI-TECH Software Omniscient Code Generator (Lite mode) build 49521"
   193  0000                     RXF14EIDL equ 0E6Bh ;# 
   194                           opt subtitle "HI-TECH Software Omniscient Code Generator (Lite mode) build 49521"
   195  0000                     RXF15SIDH equ 0E6Ch ;# 
   196                           opt subtitle "HI-TECH Software Omniscient Code Generator (Lite mode) build 49521"
   197  0000                     RXF15SIDL equ 0E6Dh ;# 
   198                           opt subtitle "HI-TECH Software Omniscient Code Generator (Lite mode) build 49521"
   199  0000                     RXF15EIDH equ 0E6Eh ;# 
   200                           opt subtitle "HI-TECH Software Omniscient Code Generator (Lite mode) build 49521"
   201  0000                     RXF15EIDL equ 0E6Fh ;# 
   202                           opt subtitle "HI-TECH Software Omniscient Code Generator (Lite mode) build 49521"
   203  0000                     SDFLC equ 0E70h ;# 
   204                           opt subtitle "HI-TECH Software Omniscient Code Generator (Lite mode) build 49521"
   205  0000                     RXFBCON0 equ 0E71h ;# 
   206                           opt subtitle "HI-TECH Software Omniscient Code Generator (Lite mode) build 49521"
   207  0000                     RXFBCON1 equ 0E72h ;# 
   208                           opt subtitle "HI-TECH Software Omniscient Code Generator (Lite mode) build 49521"
   209  0000                     RXFBCON2 equ 0E73h ;# 
   210                           opt subtitle "HI-TECH Software Omniscient Code Generator (Lite mode) build 49521"
   211  0000                     RXFBCON3 equ 0E74h ;# 
   212                           opt subtitle "HI-TECH Software Omniscient Code Generator (Lite mode) build 49521"
   213  0000                     RXFBCON4 equ 0E75h ;# 
   214                           opt subtitle "HI-TECH Software Omniscient Code Generator (Lite mode) build 49521"
   215  0000                     RXFBCON5 equ 0E76h ;# 
   216                           opt subtitle "HI-TECH Software Omniscient Code Generator (Lite mode) build 49521"
   217  0000                     RXFBCON6 equ 0E77h ;# 
   218                           opt subtitle "HI-TECH Software Omniscient Code Generator (Lite mode) build 49521"
   219  0000                     RXFBCON7 equ 0E78h ;# 
   220                           opt subtitle "HI-TECH Software Omniscient Code Generator (Lite mode) build 49521"
   221  0000                     MSEL0 equ 0E79h ;# 
   222                           opt subtitle "HI-TECH Software Omniscient Code Generator (Lite mode) build 49521"
   223  0000                     MSEL1 equ 0E7Ah ;# 
   224                           opt subtitle "HI-TECH Software Omniscient Code Generator (Lite mode) build 49521"
   225  0000                     MSEL2 equ 0E7Bh ;# 
   226                           opt subtitle "HI-TECH Software Omniscient Code Generator (Lite mode) build 49521"
   227  0000                     MSEL3 equ 0E7Ch ;# 
   228                           opt subtitle "HI-TECH Software Omniscient Code Generator (Lite mode) build 49521"
   229  0000                     BSEL0 equ 0E7Dh ;# 
   230                           opt subtitle "HI-TECH Software Omniscient Code Generator (Lite mode) build 49521"
   231  0000                     BIE0 equ 0E7Eh ;# 
   232                           opt subtitle "HI-TECH Software Omniscient Code Generator (Lite mode) build 49521"
   233  0000                     TXBIE equ 0E7Fh ;# 
   234                           opt subtitle "HI-TECH Software Omniscient Code Generator (Lite mode) build 49521"
   235  0000                     B0CON equ 0E80h ;# 
   236                           opt subtitle "HI-TECH Software Omniscient Code Generator (Lite mode) build 49521"
   237  0000                     B0SIDH equ 0E81h ;# 
   238                           opt subtitle "HI-TECH Software Omniscient Code Generator (Lite mode) build 49521"
   239  0000                     B0SIDL equ 0E82h ;# 
   240                           opt subtitle "HI-TECH Software Omniscient Code Generator (Lite mode) build 49521"
   241  0000                     B0EIDH equ 0E83h ;# 
   242                           opt subtitle "HI-TECH Software Omniscient Code Generator (Lite mode) build 49521"
   243  0000                     B0EIDL equ 0E84h ;# 
   244                           opt subtitle "HI-TECH Software Omniscient Code Generator (Lite mode) build 49521"
   245  0000                     B0DLC equ 0E85h ;# 
   246                           opt subtitle "HI-TECH Software Omniscient Code Generator (Lite mode) build 49521"
   247  0000                     B0D0 equ 0E86h ;# 
   248                           opt subtitle "HI-TECH Software Omniscient Code Generator (Lite mode) build 49521"
   249  0000                     B0D1 equ 0E87h ;# 
   250                           opt subtitle "HI-TECH Software Omniscient Code Generator (Lite mode) build 49521"
   251  0000                     B0D2 equ 0E88h ;# 
   252                           opt subtitle "HI-TECH Software Omniscient Code Generator (Lite mode) build 49521"
   253  0000                     B0D3 equ 0E89h ;# 
   254                           opt subtitle "HI-TECH Software Omniscient Code Generator (Lite mode) build 49521"
   255  0000                     B0D4 equ 0E8Ah ;# 
   256                           opt subtitle "HI-TECH Software Omniscient Code Generator (Lite mode) build 49521"
   257  0000                     B0D5 equ 0E8Bh ;# 
   258                           opt subtitle "HI-TECH Software Omniscient Code Generator (Lite mode) build 49521"
   259  0000                     B0D6 equ 0E8Ch ;# 
   260                           opt subtitle "HI-TECH Software Omniscient Code Generator (Lite mode) build 49521"
   261  0000                     B0D7 equ 0E8Dh ;# 
   262                           opt subtitle "HI-TECH Software Omniscient Code Generator (Lite mode) build 49521"
   263  0000                     CANSTAT_RO9 equ 0E8Eh ;# 
   264                           opt subtitle "HI-TECH Software Omniscient Code Generator (Lite mode) build 49521"
   265  0000                     CANCON_RO9 equ 0E8Fh ;# 
   266                           opt subtitle "HI-TECH Software Omniscient Code Generator (Lite mode) build 49521"
   267  0000                     B1CON equ 0E90h ;# 
   268                           opt subtitle "HI-TECH Software Omniscient Code Generator (Lite mode) build 49521"
   269  0000                     B1SIDH equ 0E91h ;# 
   270                           opt subtitle "HI-TECH Software Omniscient Code Generator (Lite mode) build 49521"
   271  0000                     B1SIDL equ 0E92h ;# 
   272                           opt subtitle "HI-TECH Software Omniscient Code Generator (Lite mode) build 49521"
   273  0000                     B1EIDH equ 0E93h ;# 
   274                           opt subtitle "HI-TECH Software Omniscient Code Generator (Lite mode) build 49521"
   275  0000                     B1EIDL equ 0E94h ;# 
   276                           opt subtitle "HI-TECH Software Omniscient Code Generator (Lite mode) build 49521"
   277  0000                     B1DLC equ 0E95h ;# 
   278                           opt subtitle "HI-TECH Software Omniscient Code Generator (Lite mode) build 49521"
   279  0000                     B1D0 equ 0E96h ;# 
   280                           opt subtitle "HI-TECH Software Omniscient Code Generator (Lite mode) build 49521"
   281  0000                     B1D1 equ 0E97h ;# 
   282                           opt subtitle "HI-TECH Software Omniscient Code Generator (Lite mode) build 49521"
   283  0000                     B1D2 equ 0E98h ;# 
   284                           opt subtitle "HI-TECH Software Omniscient Code Generator (Lite mode) build 49521"
   285  0000                     B1D3 equ 0E99h ;# 
   286                           opt subtitle "HI-TECH Software Omniscient Code Generator (Lite mode) build 49521"
   287  0000                     B1D4 equ 0E9Ah ;# 
   288                           opt subtitle "HI-TECH Software Omniscient Code Generator (Lite mode) build 49521"
   289  0000                     B1D5 equ 0E9Bh ;# 
   290                           opt subtitle "HI-TECH Software Omniscient Code Generator (Lite mode) build 49521"
   291  0000                     B1D6 equ 0E9Ch ;# 
   292                           opt subtitle "HI-TECH Software Omniscient Code Generator (Lite mode) build 49521"
   293  0000                     B1D7 equ 0E9Dh ;# 
   294                           opt subtitle "HI-TECH Software Omniscient Code Generator (Lite mode) build 49521"
   295  0000                     CANSTAT_RO8 equ 0E9Eh ;# 
   296                           opt subtitle "HI-TECH Software Omniscient Code Generator (Lite mode) build 49521"
   297  0000                     CANCON_RO8 equ 0E9Fh ;# 
   298                           opt subtitle "HI-TECH Software Omniscient Code Generator (Lite mode) build 49521"
   299  0000                     B2CON equ 0EA0h ;# 
   300                           opt subtitle "HI-TECH Software Omniscient Code Generator (Lite mode) build 49521"
   301  0000                     B2SIDH equ 0EA1h ;# 
   302                           opt subtitle "HI-TECH Software Omniscient Code Generator (Lite mode) build 49521"
   303  0000                     B2SIDL equ 0EA2h ;# 
   304                           opt subtitle "HI-TECH Software Omniscient Code Generator (Lite mode) build 49521"
   305  0000                     B2EIDH equ 0EA3h ;# 
   306                           opt subtitle "HI-TECH Software Omniscient Code Generator (Lite mode) build 49521"
   307  0000                     B2EIDL equ 0EA4h ;# 
   308                           opt subtitle "HI-TECH Software Omniscient Code Generator (Lite mode) build 49521"
   309  0000                     B2DLC equ 0EA5h ;# 
   310                           opt subtitle "HI-TECH Software Omniscient Code Generator (Lite mode) build 49521"
   311  0000                     B2D0 equ 0EA6h ;# 
   312                           opt subtitle "HI-TECH Software Omniscient Code Generator (Lite mode) build 49521"
   313  0000                     B2D1 equ 0EA7h ;# 
   314                           opt subtitle "HI-TECH Software Omniscient Code Generator (Lite mode) build 49521"
   315  0000                     B2D2 equ 0EA8h ;# 
   316                           opt subtitle "HI-TECH Software Omniscient Code Generator (Lite mode) build 49521"
   317  0000                     B2D3 equ 0EA9h ;# 
   318                           opt subtitle "HI-TECH Software Omniscient Code Generator (Lite mode) build 49521"
   319  0000                     B2D4 equ 0EAAh ;# 
   320                           opt subtitle "HI-TECH Software Omniscient Code Generator (Lite mode) build 49521"
   321  0000                     B2D5 equ 0EABh ;# 
   322                           opt subtitle "HI-TECH Software Omniscient Code Generator (Lite mode) build 49521"
   323  0000                     B2D6 equ 0EACh ;# 
   324                           opt subtitle "HI-TECH Software Omniscient Code Generator (Lite mode) build 49521"
   325  0000                     B2D7 equ 0EADh ;# 
   326                           opt subtitle "HI-TECH Software Omniscient Code Generator (Lite mode) build 49521"
   327  0000                     CANSTAT_RO7 equ 0EAEh ;# 
   328                           opt subtitle "HI-TECH Software Omniscient Code Generator (Lite mode) build 49521"
   329  0000                     CANCON_RO7 equ 0EAFh ;# 
   330                           opt subtitle "HI-TECH Software Omniscient Code Generator (Lite mode) build 49521"
   331  0000                     B3CON equ 0EB0h ;# 
   332                           opt subtitle "HI-TECH Software Omniscient Code Generator (Lite mode) build 49521"
   333  0000                     B3SIDH equ 0EB1h ;# 
   334                           opt subtitle "HI-TECH Software Omniscient Code Generator (Lite mode) build 49521"
   335  0000                     B3SIDL equ 0EB2h ;# 
   336                           opt subtitle "HI-TECH Software Omniscient Code Generator (Lite mode) build 49521"
   337  0000                     B3EIDH equ 0EB3h ;# 
   338                           opt subtitle "HI-TECH Software Omniscient Code Generator (Lite mode) build 49521"
   339  0000                     B3EIDL equ 0EB4h ;# 
   340                           opt subtitle "HI-TECH Software Omniscient Code Generator (Lite mode) build 49521"
   341  0000                     B3DLC equ 0EB5h ;# 
   342                           opt subtitle "HI-TECH Software Omniscient Code Generator (Lite mode) build 49521"
   343  0000                     B3D0 equ 0EB6h ;# 
   344                           opt subtitle "HI-TECH Software Omniscient Code Generator (Lite mode) build 49521"
   345  0000                     B3D1 equ 0EB7h ;# 
   346                           opt subtitle "HI-TECH Software Omniscient Code Generator (Lite mode) build 49521"
   347  0000                     B3D2 equ 0EB8h ;# 
   348                           opt subtitle "HI-TECH Software Omniscient Code Generator (Lite mode) build 49521"
   349  0000                     B3D3 equ 0EB9h ;# 
   350                           opt subtitle "HI-TECH Software Omniscient Code Generator (Lite mode) build 49521"
   351  0000                     B3D4 equ 0EBAh ;# 
   352                           opt subtitle "HI-TECH Software Omniscient Code Generator (Lite mode) build 49521"
   353  0000                     B3D5 equ 0EBBh ;# 
   354                           opt subtitle "HI-TECH Software Omniscient Code Generator (Lite mode) build 49521"
   355  0000                     B3D6 equ 0EBCh ;# 
   356                           opt subtitle "HI-TECH Software Omniscient Code Generator (Lite mode) build 49521"
   357  0000                     B3D7 equ 0EBDh ;# 
   358                           opt subtitle "HI-TECH Software Omniscient Code Generator (Lite mode) build 49521"
   359  0000                     CANSTAT_RO6 equ 0EBEh ;# 
   360                           opt subtitle "HI-TECH Software Omniscient Code Generator (Lite mode) build 49521"
   361  0000                     CANCON_RO6 equ 0EBFh ;# 
   362                           opt subtitle "HI-TECH Software Omniscient Code Generator (Lite mode) build 49521"
   363  0000                     B4CON equ 0EC0h ;# 
   364                           opt subtitle "HI-TECH Software Omniscient Code Generator (Lite mode) build 49521"
   365  0000                     B4SIDH equ 0EC1h ;# 
   366                           opt subtitle "HI-TECH Software Omniscient Code Generator (Lite mode) build 49521"
   367  0000                     B4SIDL equ 0EC2h ;# 
   368                           opt subtitle "HI-TECH Software Omniscient Code Generator (Lite mode) build 49521"
   369  0000                     B4EIDH equ 0EC3h ;# 
   370                           opt subtitle "HI-TECH Software Omniscient Code Generator (Lite mode) build 49521"
   371  0000                     B4EIDL equ 0EC4h ;# 
   372                           opt subtitle "HI-TECH Software Omniscient Code Generator (Lite mode) build 49521"
   373  0000                     B4DLC equ 0EC5h ;# 
   374                           opt subtitle "HI-TECH Software Omniscient Code Generator (Lite mode) build 49521"
   375  0000                     B4D0 equ 0EC6h ;# 
   376                           opt subtitle "HI-TECH Software Omniscient Code Generator (Lite mode) build 49521"
   377  0000                     B4D1 equ 0EC7h ;# 
   378                           opt subtitle "HI-TECH Software Omniscient Code Generator (Lite mode) build 49521"
   379  0000                     B4D2 equ 0EC8h ;# 
   380                           opt subtitle "HI-TECH Software Omniscient Code Generator (Lite mode) build 49521"
   381  0000                     B4D3 equ 0EC9h ;# 
   382                           opt subtitle "HI-TECH Software Omniscient Code Generator (Lite mode) build 49521"
   383  0000                     B4D4 equ 0ECAh ;# 
   384                           opt subtitle "HI-TECH Software Omniscient Code Generator (Lite mode) build 49521"
   385  0000                     B4D5 equ 0ECBh ;# 
   386                           opt subtitle "HI-TECH Software Omniscient Code Generator (Lite mode) build 49521"
   387  0000                     B4D6 equ 0ECCh ;# 
   388                           opt subtitle "HI-TECH Software Omniscient Code Generator (Lite mode) build 49521"
   389  0000                     B4D7 equ 0ECDh ;# 
   390                           opt subtitle "HI-TECH Software Omniscient Code Generator (Lite mode) build 49521"
   391  0000                     CANSTAT_RO5 equ 0ECEh ;# 
   392                           opt subtitle "HI-TECH Software Omniscient Code Generator (Lite mode) build 49521"
   393  0000                     CANCON_RO5 equ 0ECFh ;# 
   394                           opt subtitle "HI-TECH Software Omniscient Code Generator (Lite mode) build 49521"
   395  0000                     B5CON equ 0ED0h ;# 
   396                           opt subtitle "HI-TECH Software Omniscient Code Generator (Lite mode) build 49521"
   397  0000                     B5SIDH equ 0ED1h ;# 
   398                           opt subtitle "HI-TECH Software Omniscient Code Generator (Lite mode) build 49521"
   399  0000                     B5SIDL equ 0ED2h ;# 
   400                           opt subtitle "HI-TECH Software Omniscient Code Generator (Lite mode) build 49521"
   401  0000                     B5EIDH equ 0ED3h ;# 
   402                           opt subtitle "HI-TECH Software Omniscient Code Generator (Lite mode) build 49521"
   403  0000                     B5EIDL equ 0ED4h ;# 
   404                           opt subtitle "HI-TECH Software Omniscient Code Generator (Lite mode) build 49521"
   405  0000                     B5DLC equ 0ED5h ;# 
   406                           opt subtitle "HI-TECH Software Omniscient Code Generator (Lite mode) build 49521"
   407  0000                     B5D0 equ 0ED6h ;# 
   408                           opt subtitle "HI-TECH Software Omniscient Code Generator (Lite mode) build 49521"
   409  0000                     B5D1 equ 0ED7h ;# 
   410                           opt subtitle "HI-TECH Software Omniscient Code Generator (Lite mode) build 49521"
   411  0000                     B5D2 equ 0ED8h ;# 
   412                           opt subtitle "HI-TECH Software Omniscient Code Generator (Lite mode) build 49521"
   413  0000                     B5D3 equ 0ED9h ;# 
   414                           opt subtitle "HI-TECH Software Omniscient Code Generator (Lite mode) build 49521"
   415  0000                     B5D4 equ 0EDAh ;# 
   416                           opt subtitle "HI-TECH Software Omniscient Code Generator (Lite mode) build 49521"
   417  0000                     B5D5 equ 0EDBh ;# 
   418                           opt subtitle "HI-TECH Software Omniscient Code Generator (Lite mode) build 49521"
   419  0000                     B5D6 equ 0EDCh ;# 
   420                           opt subtitle "HI-TECH Software Omniscient Code Generator (Lite mode) build 49521"
   421  0000                     B5D7 equ 0EDDh ;# 
   422                           opt subtitle "HI-TECH Software Omniscient Code Generator (Lite mode) build 49521"
   423  0000                     CANSTAT_RO4 equ 0EDEh ;# 
   424                           opt subtitle "HI-TECH Software Omniscient Code Generator (Lite mode) build 49521"
   425  0000                     CANCON_RO4 equ 0EDFh ;# 
   426                           opt subtitle "HI-TECH Software Omniscient Code Generator (Lite mode) build 49521"
   427  0000                     RXF0SIDH equ 0EE0h ;# 
   428                           opt subtitle "HI-TECH Software Omniscient Code Generator (Lite mode) build 49521"
   429  0000                     RXF0SIDL equ 0EE1h ;# 
   430                           opt subtitle "HI-TECH Software Omniscient Code Generator (Lite mode) build 49521"
   431  0000                     RXF0EIDH equ 0EE2h ;# 
   432                           opt subtitle "HI-TECH Software Omniscient Code Generator (Lite mode) build 49521"
   433  0000                     RXF0EIDL equ 0EE3h ;# 
   434                           opt subtitle "HI-TECH Software Omniscient Code Generator (Lite mode) build 49521"
   435  0000                     RXF1SIDH equ 0EE4h ;# 
   436                           opt subtitle "HI-TECH Software Omniscient Code Generator (Lite mode) build 49521"
   437  0000                     RXF1SIDL equ 0EE5h ;# 
   438                           opt subtitle "HI-TECH Software Omniscient Code Generator (Lite mode) build 49521"
   439  0000                     RXF1EIDH equ 0EE6h ;# 
   440                           opt subtitle "HI-TECH Software Omniscient Code Generator (Lite mode) build 49521"
   441  0000                     RXF1EIDL equ 0EE7h ;# 
   442                           opt subtitle "HI-TECH Software Omniscient Code Generator (Lite mode) build 49521"
   443  0000                     RXF2SIDH equ 0EE8h ;# 
   444                           opt subtitle "HI-TECH Software Omniscient Code Generator (Lite mode) build 49521"
   445  0000                     RXF2SIDL equ 0EE9h ;# 
   446                           opt subtitle "HI-TECH Software Omniscient Code Generator (Lite mode) build 49521"
   447  0000                     RXF2EIDH equ 0EEAh ;# 
   448                           opt subtitle "HI-TECH Software Omniscient Code Generator (Lite mode) build 49521"
   449  0000                     RXF2EIDL equ 0EEBh ;# 
   450                           opt subtitle "HI-TECH Software Omniscient Code Generator (Lite mode) build 49521"
   451  0000                     RXF3SIDH equ 0EECh ;# 
   452                           opt subtitle "HI-TECH Software Omniscient Code Generator (Lite mode) build 49521"
   453  0000                     RXF3SIDL equ 0EEDh ;# 
   454                           opt subtitle "HI-TECH Software Omniscient Code Generator (Lite mode) build 49521"
   455  0000                     RXF3EIDH equ 0EEEh ;# 
   456                           opt subtitle "HI-TECH Software Omniscient Code Generator (Lite mode) build 49521"
   457  0000                     RXF3EIDL equ 0EEFh ;# 
   458                           opt subtitle "HI-TECH Software Omniscient Code Generator (Lite mode) build 49521"
   459  0000                     RXF4SIDH equ 0EF0h ;# 
   460                           opt subtitle "HI-TECH Software Omniscient Code Generator (Lite mode) build 49521"
   461  0000                     RXF4SIDL equ 0EF1h ;# 
   462                           opt subtitle "HI-TECH Software Omniscient Code Generator (Lite mode) build 49521"
   463  0000                     RXF4EIDH equ 0EF2h ;# 
   464                           opt subtitle "HI-TECH Software Omniscient Code Generator (Lite mode) build 49521"
   465  0000                     RXF4EIDL equ 0EF3h ;# 
   466                           opt subtitle "HI-TECH Software Omniscient Code Generator (Lite mode) build 49521"
   467  0000                     RXF5SIDH equ 0EF4h ;# 
   468                           opt subtitle "HI-TECH Software Omniscient Code Generator (Lite mode) build 49521"
   469  0000                     RXF5SIDL equ 0EF5h ;# 
   470                           opt subtitle "HI-TECH Software Omniscient Code Generator (Lite mode) build 49521"
   471  0000                     RXF5EIDH equ 0EF6h ;# 
   472                           opt subtitle "HI-TECH Software Omniscient Code Generator (Lite mode) build 49521"
   473  0000                     RXF5EIDL equ 0EF7h ;# 
   474                           opt subtitle "HI-TECH Software Omniscient Code Generator (Lite mode) build 49521"
   475  0000                     RXM0SIDH equ 0EF8h ;# 
   476                           opt subtitle "HI-TECH Software Omniscient Code Generator (Lite mode) build 49521"
   477  0000                     RXM0SIDL equ 0EF9h ;# 
   478                           opt subtitle "HI-TECH Software Omniscient Code Generator (Lite mode) build 49521"
   479  0000                     RXM0EIDH equ 0EFAh ;# 
   480                           opt subtitle "HI-TECH Software Omniscient Code Generator (Lite mode) build 49521"
   481  0000                     RXM0EIDL equ 0EFBh ;# 
   482                           opt subtitle "HI-TECH Software Omniscient Code Generator (Lite mode) build 49521"
   483  0000                     RXM1SIDH equ 0EFCh ;# 
   484                           opt subtitle "HI-TECH Software Omniscient Code Generator (Lite mode) build 49521"
   485  0000                     RXM1SIDL equ 0EFDh ;# 
   486                           opt subtitle "HI-TECH Software Omniscient Code Generator (Lite mode) build 49521"
   487  0000                     RXM1EIDH equ 0EFEh ;# 
   488                           opt subtitle "HI-TECH Software Omniscient Code Generator (Lite mode) build 49521"
   489  0000                     RXM1EIDL equ 0EFFh ;# 
   490                           opt subtitle "HI-TECH Software Omniscient Code Generator (Lite mode) build 49521"
   491  0000                     TXB2CON equ 0F00h ;# 
   492                           opt subtitle "HI-TECH Software Omniscient Code Generator (Lite mode) build 49521"
   493  0000                     TXB2SIDH equ 0F01h ;# 
   494                           opt subtitle "HI-TECH Software Omniscient Code Generator (Lite mode) build 49521"
   495  0000                     TXB2SIDL equ 0F02h ;# 
   496                           opt subtitle "HI-TECH Software Omniscient Code Generator (Lite mode) build 49521"
   497  0000                     TXB2EIDH equ 0F03h ;# 
   498                           opt subtitle "HI-TECH Software Omniscient Code Generator (Lite mode) build 49521"
   499  0000                     TXB2EIDL equ 0F04h ;# 
   500                           opt subtitle "HI-TECH Software Omniscient Code Generator (Lite mode) build 49521"
   501  0000                     TXB2DLC equ 0F05h ;# 
   502                           opt subtitle "HI-TECH Software Omniscient Code Generator (Lite mode) build 49521"
   503  0000                     TXB2D0 equ 0F06h ;# 
   504                           opt subtitle "HI-TECH Software Omniscient Code Generator (Lite mode) build 49521"
   505  0000                     TXB2D1 equ 0F07h ;# 
   506                           opt subtitle "HI-TECH Software Omniscient Code Generator (Lite mode) build 49521"
   507  0000                     TXB2D2 equ 0F08h ;# 
   508                           opt subtitle "HI-TECH Software Omniscient Code Generator (Lite mode) build 49521"
   509  0000                     TXB2D3 equ 0F09h ;# 
   510                           opt subtitle "HI-TECH Software Omniscient Code Generator (Lite mode) build 49521"
   511  0000                     TXB2D4 equ 0F0Ah ;# 
   512                           opt subtitle "HI-TECH Software Omniscient Code Generator (Lite mode) build 49521"
   513  0000                     TXB2D5 equ 0F0Bh ;# 
   514                           opt subtitle "HI-TECH Software Omniscient Code Generator (Lite mode) build 49521"
   515  0000                     TXB2D6 equ 0F0Ch ;# 
   516                           opt subtitle "HI-TECH Software Omniscient Code Generator (Lite mode) build 49521"
   517  0000                     TXB2D7 equ 0F0Dh ;# 
   518                           opt subtitle "HI-TECH Software Omniscient Code Generator (Lite mode) build 49521"
   519  0000                     CANSTAT_RO3 equ 0F0Eh ;# 
   520                           opt subtitle "HI-TECH Software Omniscient Code Generator (Lite mode) build 49521"
   521  0000                     CANCON_RO3 equ 0F0Fh ;# 
   522                           opt subtitle "HI-TECH Software Omniscient Code Generator (Lite mode) build 49521"
   523  0000                     TXB1CON equ 0F10h ;# 
   524                           opt subtitle "HI-TECH Software Omniscient Code Generator (Lite mode) build 49521"
   525  0000                     TXB1SIDH equ 0F11h ;# 
   526                           opt subtitle "HI-TECH Software Omniscient Code Generator (Lite mode) build 49521"
   527  0000                     TXB1SIDL equ 0F12h ;# 
   528                           opt subtitle "HI-TECH Software Omniscient Code Generator (Lite mode) build 49521"
   529  0000                     TXB1EIDH equ 0F13h ;# 
   530                           opt subtitle "HI-TECH Software Omniscient Code Generator (Lite mode) build 49521"
   531  0000                     TXB1EIDL equ 0F14h ;# 
   532                           opt subtitle "HI-TECH Software Omniscient Code Generator (Lite mode) build 49521"
   533  0000                     TXB1DLC equ 0F15h ;# 
   534                           opt subtitle "HI-TECH Software Omniscient Code Generator (Lite mode) build 49521"
   535  0000                     TXB1D0 equ 0F16h ;# 
   536                           opt subtitle "HI-TECH Software Omniscient Code Generator (Lite mode) build 49521"
   537  0000                     TXB1D1 equ 0F17h ;# 
   538                           opt subtitle "HI-TECH Software Omniscient Code Generator (Lite mode) build 49521"
   539  0000                     TXB1D2 equ 0F18h ;# 
   540                           opt subtitle "HI-TECH Software Omniscient Code Generator (Lite mode) build 49521"
   541  0000                     TXB1D3 equ 0F19h ;# 
   542                           opt subtitle "HI-TECH Software Omniscient Code Generator (Lite mode) build 49521"
   543  0000                     TXB1D4 equ 0F1Ah ;# 
   544                           opt subtitle "HI-TECH Software Omniscient Code Generator (Lite mode) build 49521"
   545  0000                     TXB1D5 equ 0F1Bh ;# 
   546                           opt subtitle "HI-TECH Software Omniscient Code Generator (Lite mode) build 49521"
   547  0000                     TXB1D6 equ 0F1Ch ;# 
   548                           opt subtitle "HI-TECH Software Omniscient Code Generator (Lite mode) build 49521"
   549  0000                     TXB1D7 equ 0F1Dh ;# 
   550                           opt subtitle "HI-TECH Software Omniscient Code Generator (Lite mode) build 49521"
   551  0000                     CANSTAT_RO2 equ 0F1Eh ;# 
   552                           opt subtitle "HI-TECH Software Omniscient Code Generator (Lite mode) build 49521"
   553  0000                     CANCON_RO2 equ 0F1Fh ;# 
   554                           opt subtitle "HI-TECH Software Omniscient Code Generator (Lite mode) build 49521"
   555  0000                     TXB0CON equ 0F20h ;# 
   556                           opt subtitle "HI-TECH Software Omniscient Code Generator (Lite mode) build 49521"
   557  0000                     TXB0SIDH equ 0F21h ;# 
   558                           opt subtitle "HI-TECH Software Omniscient Code Generator (Lite mode) build 49521"
   559  0000                     TXB0SIDL equ 0F22h ;# 
   560                           opt subtitle "HI-TECH Software Omniscient Code Generator (Lite mode) build 49521"
   561  0000                     TXB0EIDH equ 0F23h ;# 
   562                           opt subtitle "HI-TECH Software Omniscient Code Generator (Lite mode) build 49521"
   563  0000                     TXB0EIDL equ 0F24h ;# 
   564                           opt subtitle "HI-TECH Software Omniscient Code Generator (Lite mode) build 49521"
   565  0000                     TXB0DLC equ 0F25h ;# 
   566                           opt subtitle "HI-TECH Software Omniscient Code Generator (Lite mode) build 49521"
   567  0000                     TXB0D0 equ 0F26h ;# 
   568                           opt subtitle "HI-TECH Software Omniscient Code Generator (Lite mode) build 49521"
   569  0000                     TXB0D1 equ 0F27h ;# 
   570                           opt subtitle "HI-TECH Software Omniscient Code Generator (Lite mode) build 49521"
   571  0000                     TXB0D2 equ 0F28h ;# 
   572                           opt subtitle "HI-TECH Software Omniscient Code Generator (Lite mode) build 49521"
   573  0000                     TXB0D3 equ 0F29h ;# 
   574                           opt subtitle "HI-TECH Software Omniscient Code Generator (Lite mode) build 49521"
   575  0000                     TXB0D4 equ 0F2Ah ;# 
   576                           opt subtitle "HI-TECH Software Omniscient Code Generator (Lite mode) build 49521"
   577  0000                     TXB0D5 equ 0F2Bh ;# 
   578                           opt subtitle "HI-TECH Software Omniscient Code Generator (Lite mode) build 49521"
   579  0000                     TXB0D6 equ 0F2Ch ;# 
   580                           opt subtitle "HI-TECH Software Omniscient Code Generator (Lite mode) build 49521"
   581  0000                     TXB0D7 equ 0F2Dh ;# 
   582                           opt subtitle "HI-TECH Software Omniscient Code Generator (Lite mode) build 49521"
   583  0000                     CANSTAT_RO1 equ 0F2Eh ;# 
   584                           opt subtitle "HI-TECH Software Omniscient Code Generator (Lite mode) build 49521"
   585  0000                     CANCON_RO1 equ 0F2Fh ;# 
   586                           opt subtitle "HI-TECH Software Omniscient Code Generator (Lite mode) build 49521"
   587  0000                     RXB1CON equ 0F30h ;# 
   588                           opt subtitle "HI-TECH Software Omniscient Code Generator (Lite mode) build 49521"
   589  0000                     RXB1SIDH equ 0F31h ;# 
   590                           opt subtitle "HI-TECH Software Omniscient Code Generator (Lite mode) build 49521"
   591  0000                     RXB1SIDL equ 0F32h ;# 
   592                           opt subtitle "HI-TECH Software Omniscient Code Generator (Lite mode) build 49521"
   593  0000                     RXB1EIDH equ 0F33h ;# 
   594                           opt subtitle "HI-TECH Software Omniscient Code Generator (Lite mode) build 49521"
   595  0000                     RXB1EIDL equ 0F34h ;# 
   596                           opt subtitle "HI-TECH Software Omniscient Code Generator (Lite mode) build 49521"
   597  0000                     RXB1DLC equ 0F35h ;# 
   598                           opt subtitle "HI-TECH Software Omniscient Code Generator (Lite mode) build 49521"
   599  0000                     RXB1D0 equ 0F36h ;# 
   600                           opt subtitle "HI-TECH Software Omniscient Code Generator (Lite mode) build 49521"
   601  0000                     RXB1D1 equ 0F37h ;# 
   602                           opt subtitle "HI-TECH Software Omniscient Code Generator (Lite mode) build 49521"
   603  0000                     RXB1D2 equ 0F38h ;# 
   604                           opt subtitle "HI-TECH Software Omniscient Code Generator (Lite mode) build 49521"
   605  0000                     RXB1D3 equ 0F39h ;# 
   606                           opt subtitle "HI-TECH Software Omniscient Code Generator (Lite mode) build 49521"
   607  0000                     RXB1D4 equ 0F3Ah ;# 
   608                           opt subtitle "HI-TECH Software Omniscient Code Generator (Lite mode) build 49521"
   609  0000                     RXB1D5 equ 0F3Bh ;# 
   610                           opt subtitle "HI-TECH Software Omniscient Code Generator (Lite mode) build 49521"
   611  0000                     RXB1D6 equ 0F3Ch ;# 
   612                           opt subtitle "HI-TECH Software Omniscient Code Generator (Lite mode) build 49521"
   613  0000                     RXB1D7 equ 0F3Dh ;# 
   614                           opt subtitle "HI-TECH Software Omniscient Code Generator (Lite mode) build 49521"
   615  0000                     CANSTAT_RO0 equ 0F3Eh ;# 
   616                           opt subtitle "HI-TECH Software Omniscient Code Generator (Lite mode) build 49521"
   617  0000                     CANCON_RO0 equ 0F3Fh ;# 
   618                           opt subtitle "HI-TECH Software Omniscient Code Generator (Lite mode) build 49521"
   619  0000                     CCP5CON equ 0F47h ;# 
   620                           opt subtitle "HI-TECH Software Omniscient Code Generator (Lite mode) build 49521"
   621  0000                     CCPR5 equ 0F48h ;# 
   622                           opt subtitle "HI-TECH Software Omniscient Code Generator (Lite mode) build 49521"
   623  0000                     CCPR5L equ 0F48h ;# 
   624                           opt subtitle "HI-TECH Software Omniscient Code Generator (Lite mode) build 49521"
   625  0000                     CCPR5H equ 0F49h ;# 
   626                           opt subtitle "HI-TECH Software Omniscient Code Generator (Lite mode) build 49521"
   627  0000                     CCP4CON equ 0F4Ah ;# 
   628                           opt subtitle "HI-TECH Software Omniscient Code Generator (Lite mode) build 49521"
   629  0000                     CCPR4 equ 0F4Bh ;# 
   630                           opt subtitle "HI-TECH Software Omniscient Code Generator (Lite mode) build 49521"
   631  0000                     CCPR4L equ 0F4Bh ;# 
   632                           opt subtitle "HI-TECH Software Omniscient Code Generator (Lite mode) build 49521"
   633  0000                     CCPR4H equ 0F4Ch ;# 
   634                           opt subtitle "HI-TECH Software Omniscient Code Generator (Lite mode) build 49521"
   635  0000                     CCP3CON equ 0F4Dh ;# 
   636                           opt subtitle "HI-TECH Software Omniscient Code Generator (Lite mode) build 49521"
   637  0000                     CCPR3 equ 0F4Eh ;# 
   638                           opt subtitle "HI-TECH Software Omniscient Code Generator (Lite mode) build 49521"
   639  0000                     CCPR3L equ 0F4Eh ;# 
   640                           opt subtitle "HI-TECH Software Omniscient Code Generator (Lite mode) build 49521"
   641  0000                     CCPR3H equ 0F4Fh ;# 
   642                           opt subtitle "HI-TECH Software Omniscient Code Generator (Lite mode) build 49521"
   643  0000                     CCP2CON equ 0F50h ;# 
   644                           opt subtitle "HI-TECH Software Omniscient Code Generator (Lite mode) build 49521"
   645  0000                     ECCP2CON equ 0F50h ;# 
   646                           opt subtitle "HI-TECH Software Omniscient Code Generator (Lite mode) build 49521"
   647  0000                     CCPR2 equ 0F51h ;# 
   648                           opt subtitle "HI-TECH Software Omniscient Code Generator (Lite mode) build 49521"
   649  0000                     CCPR2L equ 0F51h ;# 
   650                           opt subtitle "HI-TECH Software Omniscient Code Generator (Lite mode) build 49521"
   651  0000                     CCPR2H equ 0F52h ;# 
   652                           opt subtitle "HI-TECH Software Omniscient Code Generator (Lite mode) build 49521"
   653  0000                     CTMUICON equ 0F53h ;# 
   654                           opt subtitle "HI-TECH Software Omniscient Code Generator (Lite mode) build 49521"
   655  0000                     CTMUCONL equ 0F54h ;# 
   656                           opt subtitle "HI-TECH Software Omniscient Code Generator (Lite mode) build 49521"
   657  0000                     CTMUCONH equ 0F55h ;# 
   658                           opt subtitle "HI-TECH Software Omniscient Code Generator (Lite mode) build 49521"
   659  0000                     PADCFG1 equ 0F56h ;# 
   660                           opt subtitle "HI-TECH Software Omniscient Code Generator (Lite mode) build 49521"
   661  0000                     PMD2 equ 0F57h ;# 
   662                           opt subtitle "HI-TECH Software Omniscient Code Generator (Lite mode) build 49521"
   663  0000                     PMD1 equ 0F58h ;# 
   664                           opt subtitle "HI-TECH Software Omniscient Code Generator (Lite mode) build 49521"
   665  0000                     PMD0 equ 0F59h ;# 
   666                           opt subtitle "HI-TECH Software Omniscient Code Generator (Lite mode) build 49521"
   667  0000                     IOCB equ 0F5Ah ;# 
   668                           opt subtitle "HI-TECH Software Omniscient Code Generator (Lite mode) build 49521"
   669  0000                     WPUB equ 0F5Bh ;# 
   670                           opt subtitle "HI-TECH Software Omniscient Code Generator (Lite mode) build 49521"
   671  0000                     ANCON1 equ 0F5Ch ;# 
   672                           opt subtitle "HI-TECH Software Omniscient Code Generator (Lite mode) build 49521"
   673  0000                     ANCON0 equ 0F5Dh ;# 
   674                           opt subtitle "HI-TECH Software Omniscient Code Generator (Lite mode) build 49521"
   675  0000                     CM2CON equ 0F5Eh ;# 
   676                           opt subtitle "HI-TECH Software Omniscient Code Generator (Lite mode) build 49521"
   677  0000                     CM2CON1 equ 0F5Eh ;# 
   678                           opt subtitle "HI-TECH Software Omniscient Code Generator (Lite mode) build 49521"
   679  0000                     CM1CON equ 0F5Fh ;# 
   680                           opt subtitle "HI-TECH Software Omniscient Code Generator (Lite mode) build 49521"
   681  0000                     CM1CON1 equ 0F5Fh ;# 
   682                           opt subtitle "HI-TECH Software Omniscient Code Generator (Lite mode) build 49521"
   683  0000                     RXB0CON equ 0F60h ;# 
   684                           opt subtitle "HI-TECH Software Omniscient Code Generator (Lite mode) build 49521"
   685  0000                     RXB0SIDH equ 0F61h ;# 
   686                           opt subtitle "HI-TECH Software Omniscient Code Generator (Lite mode) build 49521"
   687  0000                     RXB0SIDL equ 0F62h ;# 
   688                           opt subtitle "HI-TECH Software Omniscient Code Generator (Lite mode) build 49521"
   689  0000                     RXB0EIDH equ 0F63h ;# 
   690                           opt subtitle "HI-TECH Software Omniscient Code Generator (Lite mode) build 49521"
   691  0000                     RXB0EIDL equ 0F64h ;# 
   692                           opt subtitle "HI-TECH Software Omniscient Code Generator (Lite mode) build 49521"
   693  0000                     RXB0DLC equ 0F65h ;# 
   694                           opt subtitle "HI-TECH Software Omniscient Code Generator (Lite mode) build 49521"
   695  0000                     RXB0D0 equ 0F66h ;# 
   696                           opt subtitle "HI-TECH Software Omniscient Code Generator (Lite mode) build 49521"
   697  0000                     RXB0D1 equ 0F67h ;# 
   698                           opt subtitle "HI-TECH Software Omniscient Code Generator (Lite mode) build 49521"
   699  0000                     RXB0D2 equ 0F68h ;# 
   700                           opt subtitle "HI-TECH Software Omniscient Code Generator (Lite mode) build 49521"
   701  0000                     RXB0D3 equ 0F69h ;# 
   702                           opt subtitle "HI-TECH Software Omniscient Code Generator (Lite mode) build 49521"
   703  0000                     RXB0D4 equ 0F6Ah ;# 
   704                           opt subtitle "HI-TECH Software Omniscient Code Generator (Lite mode) build 49521"
   705  0000                     RXB0D5 equ 0F6Bh ;# 
   706                           opt subtitle "HI-TECH Software Omniscient Code Generator (Lite mode) build 49521"
   707  0000                     RXB0D6 equ 0F6Ch ;# 
   708                           opt subtitle "HI-TECH Software Omniscient Code Generator (Lite mode) build 49521"
   709  0000                     RXB0D7 equ 0F6Dh ;# 
   710                           opt subtitle "HI-TECH Software Omniscient Code Generator (Lite mode) build 49521"
   711  0000                     CANSTAT equ 0F6Eh ;# 
   712                           opt subtitle "HI-TECH Software Omniscient Code Generator (Lite mode) build 49521"
   713  0000                     CANCON equ 0F6Fh ;# 
   714                           opt subtitle "HI-TECH Software Omniscient Code Generator (Lite mode) build 49521"
   715  0000                     CIOCON equ 0F70h ;# 
   716                           opt subtitle "HI-TECH Software Omniscient Code Generator (Lite mode) build 49521"
   717  0000                     COMSTAT equ 0F71h ;# 
   718                           opt subtitle "HI-TECH Software Omniscient Code Generator (Lite mode) build 49521"
   719  0000                     ECANCON equ 0F72h ;# 
   720                           opt subtitle "HI-TECH Software Omniscient Code Generator (Lite mode) build 49521"
   721  0000                     EEDATA equ 0F73h ;# 
   722                           opt subtitle "HI-TECH Software Omniscient Code Generator (Lite mode) build 49521"
   723  0000                     EEADR equ 0F74h ;# 
   724                           opt subtitle "HI-TECH Software Omniscient Code Generator (Lite mode) build 49521"
   725  0000                     EEADRH equ 0F75h ;# 
   726                           opt subtitle "HI-TECH Software Omniscient Code Generator (Lite mode) build 49521"
   727  0000                     PIE5 equ 0F76h ;# 
   728                           opt subtitle "HI-TECH Software Omniscient Code Generator (Lite mode) build 49521"
   729  0000                     PIR5 equ 0F77h ;# 
   730                           opt subtitle "HI-TECH Software Omniscient Code Generator (Lite mode) build 49521"
   731  0000                     IPR5 equ 0F78h ;# 
   732                           opt subtitle "HI-TECH Software Omniscient Code Generator (Lite mode) build 49521"
   733  0000                     TXREG2 equ 0F79h ;# 
   734                           opt subtitle "HI-TECH Software Omniscient Code Generator (Lite mode) build 49521"
   735  0000                     RCREG2 equ 0F7Ah ;# 
   736                           opt subtitle "HI-TECH Software Omniscient Code Generator (Lite mode) build 49521"
   737  0000                     SPBRG2 equ 0F7Bh ;# 
   738                           opt subtitle "HI-TECH Software Omniscient Code Generator (Lite mode) build 49521"
   739  0000                     SPBRGH2 equ 0F7Ch ;# 
   740                           opt subtitle "HI-TECH Software Omniscient Code Generator (Lite mode) build 49521"
   741  0000                     SPBRGH1 equ 0F7Dh ;# 
   742                           opt subtitle "HI-TECH Software Omniscient Code Generator (Lite mode) build 49521"
   743  0000                     EECON2 equ 0F7Eh ;# 
   744                           opt subtitle "HI-TECH Software Omniscient Code Generator (Lite mode) build 49521"
   745  0000                     EECON1 equ 0F7Fh ;# 
   746                           opt subtitle "HI-TECH Software Omniscient Code Generator (Lite mode) build 49521"
   747  0000                     PORTA equ 0F80h ;# 
   748                           opt subtitle "HI-TECH Software Omniscient Code Generator (Lite mode) build 49521"
   749  0000                     PORTB equ 0F81h ;# 
   750                           opt subtitle "HI-TECH Software Omniscient Code Generator (Lite mode) build 49521"
   751  0000                     PORTC equ 0F82h ;# 
   752                           opt subtitle "HI-TECH Software Omniscient Code Generator (Lite mode) build 49521"
   753  0000                     PORTE equ 0F84h ;# 
   754                           opt subtitle "HI-TECH Software Omniscient Code Generator (Lite mode) build 49521"
   755  0000                     TMR4 equ 0F87h ;# 
   756                           opt subtitle "HI-TECH Software Omniscient Code Generator (Lite mode) build 49521"
   757  0000                     T4CON equ 0F88h ;# 
   758                           opt subtitle "HI-TECH Software Omniscient Code Generator (Lite mode) build 49521"
   759  0000                     LATA equ 0F89h ;# 
   760                           opt subtitle "HI-TECH Software Omniscient Code Generator (Lite mode) build 49521"
   761  0000                     LATB equ 0F8Ah ;# 
   762                           opt subtitle "HI-TECH Software Omniscient Code Generator (Lite mode) build 49521"
   763  0000                     LATC equ 0F8Bh ;# 
   764                           opt subtitle "HI-TECH Software Omniscient Code Generator (Lite mode) build 49521"
   765  0000                     SLRCON equ 0F90h ;# 
   766                           opt subtitle "HI-TECH Software Omniscient Code Generator (Lite mode) build 49521"
   767  0000                     ODCON equ 0F91h ;# 
   768                           opt subtitle "HI-TECH Software Omniscient Code Generator (Lite mode) build 49521"
   769  0000                     TRISA equ 0F92h ;# 
   770                           opt subtitle "HI-TECH Software Omniscient Code Generator (Lite mode) build 49521"
   771  0000                     TRISB equ 0F93h ;# 
   772                           opt subtitle "HI-TECH Software Omniscient Code Generator (Lite mode) build 49521"
   773  0000                     TRISC equ 0F94h ;# 
   774                           opt subtitle "HI-TECH Software Omniscient Code Generator (Lite mode) build 49521"
   775  0000                     CCPTMRS equ 0F99h ;# 
   776                           opt subtitle "HI-TECH Software Omniscient Code Generator (Lite mode) build 49521"
   777  0000                     REFOCON equ 0F9Ah ;# 
   778                           opt subtitle "HI-TECH Software Omniscient Code Generator (Lite mode) build 49521"
   779  0000                     OSCTUNE equ 0F9Bh ;# 
   780                           opt subtitle "HI-TECH Software Omniscient Code Generator (Lite mode) build 49521"
   781  0000                     PSTR1CON equ 0F9Ch ;# 
   782                           opt subtitle "HI-TECH Software Omniscient Code Generator (Lite mode) build 49521"
   783  0000                     PIE1 equ 0F9Dh ;# 
   784                           opt subtitle "HI-TECH Software Omniscient Code Generator (Lite mode) build 49521"
   785  0000                     PIR1 equ 0F9Eh ;# 
   786                           opt subtitle "HI-TECH Software Omniscient Code Generator (Lite mode) build 49521"
   787  0000                     IPR1 equ 0F9Fh ;# 
   788                           opt subtitle "HI-TECH Software Omniscient Code Generator (Lite mode) build 49521"
   789  0000                     PIE2 equ 0FA0h ;# 
   790                           opt subtitle "HI-TECH Software Omniscient Code Generator (Lite mode) build 49521"
   791  0000                     PIR2 equ 0FA1h ;# 
   792                           opt subtitle "HI-TECH Software Omniscient Code Generator (Lite mode) build 49521"
   793  0000                     IPR2 equ 0FA2h ;# 
   794                           opt subtitle "HI-TECH Software Omniscient Code Generator (Lite mode) build 49521"
   795  0000                     PIE3 equ 0FA3h ;# 
   796                           opt subtitle "HI-TECH Software Omniscient Code Generator (Lite mode) build 49521"
   797  0000                     PIR3 equ 0FA4h ;# 
   798                           opt subtitle "HI-TECH Software Omniscient Code Generator (Lite mode) build 49521"
   799  0000                     IPR3 equ 0FA5h ;# 
   800                           opt subtitle "HI-TECH Software Omniscient Code Generator (Lite mode) build 49521"
   801  0000                     RCSTA2 equ 0FA6h ;# 
   802                           opt subtitle "HI-TECH Software Omniscient Code Generator (Lite mode) build 49521"
   803  0000                     BAUDCON1 equ 0FA7h ;# 
   804                           opt subtitle "HI-TECH Software Omniscient Code Generator (Lite mode) build 49521"
   805  0000                     HLVDCON equ 0FA8h ;# 
   806                           opt subtitle "HI-TECH Software Omniscient Code Generator (Lite mode) build 49521"
   807  0000                     PR4 equ 0FA9h ;# 
   808                           opt subtitle "HI-TECH Software Omniscient Code Generator (Lite mode) build 49521"
   809  0000                     T1GCON equ 0FAAh ;# 
   810                           opt subtitle "HI-TECH Software Omniscient Code Generator (Lite mode) build 49521"
   811  0000                     RCSTA1 equ 0FABh ;# 
   812                           opt subtitle "HI-TECH Software Omniscient Code Generator (Lite mode) build 49521"
   813  0000                     RCSTA equ 0FABh ;# 
   814                           opt subtitle "HI-TECH Software Omniscient Code Generator (Lite mode) build 49521"
   815  0000                     TXSTA1 equ 0FACh ;# 
   816                           opt subtitle "HI-TECH Software Omniscient Code Generator (Lite mode) build 49521"
   817  0000                     TXSTA equ 0FACh ;# 
   818                           opt subtitle "HI-TECH Software Omniscient Code Generator (Lite mode) build 49521"
   819  0000                     TXREG1 equ 0FADh ;# 
   820                           opt subtitle "HI-TECH Software Omniscient Code Generator (Lite mode) build 49521"
   821  0000                     TXREG equ 0FADh ;# 
   822                           opt subtitle "HI-TECH Software Omniscient Code Generator (Lite mode) build 49521"
   823  0000                     RCREG1 equ 0FAEh ;# 
   824                           opt subtitle "HI-TECH Software Omniscient Code Generator (Lite mode) build 49521"
   825  0000                     RCREG equ 0FAEh ;# 
   826                           opt subtitle "HI-TECH Software Omniscient Code Generator (Lite mode) build 49521"
   827  0000                     SPBRG1 equ 0FAFh ;# 
   828                           opt subtitle "HI-TECH Software Omniscient Code Generator (Lite mode) build 49521"
   829  0000                     SPBRG equ 0FAFh ;# 
   830                           opt subtitle "HI-TECH Software Omniscient Code Generator (Lite mode) build 49521"
   831  0000                     T3GCON equ 0FB0h ;# 
   832                           opt subtitle "HI-TECH Software Omniscient Code Generator (Lite mode) build 49521"
   833  0000                     T3CON equ 0FB1h ;# 
   834                           opt subtitle "HI-TECH Software Omniscient Code Generator (Lite mode) build 49521"
   835  0000                     TMR3 equ 0FB2h ;# 
   836                           opt subtitle "HI-TECH Software Omniscient Code Generator (Lite mode) build 49521"
   837  0000                     TMR3L equ 0FB2h ;# 
   838                           opt subtitle "HI-TECH Software Omniscient Code Generator (Lite mode) build 49521"
   839  0000                     TMR3H equ 0FB3h ;# 
   840                           opt subtitle "HI-TECH Software Omniscient Code Generator (Lite mode) build 49521"
   841  0000                     CMSTAT equ 0FB4h ;# 
   842                           opt subtitle "HI-TECH Software Omniscient Code Generator (Lite mode) build 49521"
   843  0000                     CMSTATUS equ 0FB4h ;# 
   844                           opt subtitle "HI-TECH Software Omniscient Code Generator (Lite mode) build 49521"
   845  0000                     CVRCON equ 0FB5h ;# 
   846                           opt subtitle "HI-TECH Software Omniscient Code Generator (Lite mode) build 49521"
   847  0000                     PIE4 equ 0FB6h ;# 
   848                           opt subtitle "HI-TECH Software Omniscient Code Generator (Lite mode) build 49521"
   849  0000                     PIR4 equ 0FB7h ;# 
   850                           opt subtitle "HI-TECH Software Omniscient Code Generator (Lite mode) build 49521"
   851  0000                     IPR4 equ 0FB8h ;# 
   852                           opt subtitle "HI-TECH Software Omniscient Code Generator (Lite mode) build 49521"
   853  0000                     BAUDCON2 equ 0FB9h ;# 
   854                           opt subtitle "HI-TECH Software Omniscient Code Generator (Lite mode) build 49521"
   855  0000                     TXSTA2 equ 0FBAh ;# 
   856                           opt subtitle "HI-TECH Software Omniscient Code Generator (Lite mode) build 49521"
   857  0000                     CCP1CON equ 0FBBh ;# 
   858                           opt subtitle "HI-TECH Software Omniscient Code Generator (Lite mode) build 49521"
   859  0000                     ECCP1CON equ 0FBBh ;# 
   860                           opt subtitle "HI-TECH Software Omniscient Code Generator (Lite mode) build 49521"
   861  0000                     CCPR1 equ 0FBCh ;# 
   862                           opt subtitle "HI-TECH Software Omniscient Code Generator (Lite mode) build 49521"
   863  0000                     CCPR1L equ 0FBCh ;# 
   864                           opt subtitle "HI-TECH Software Omniscient Code Generator (Lite mode) build 49521"
   865  0000                     CCPR1H equ 0FBDh ;# 
   866                           opt subtitle "HI-TECH Software Omniscient Code Generator (Lite mode) build 49521"
   867  0000                     ECCP1DEL equ 0FBEh ;# 
   868                           opt subtitle "HI-TECH Software Omniscient Code Generator (Lite mode) build 49521"
   869  0000                     PWM1CON equ 0FBEh ;# 
   870                           opt subtitle "HI-TECH Software Omniscient Code Generator (Lite mode) build 49521"
   871  0000                     ECCP1AS equ 0FBFh ;# 
   872                           opt subtitle "HI-TECH Software Omniscient Code Generator (Lite mode) build 49521"
   873  0000                     ADCON2 equ 0FC0h ;# 
   874                           opt subtitle "HI-TECH Software Omniscient Code Generator (Lite mode) build 49521"
   875  0000                     ADCON1 equ 0FC1h ;# 
   876                           opt subtitle "HI-TECH Software Omniscient Code Generator (Lite mode) build 49521"
   877  0000                     ADCON0 equ 0FC2h ;# 
   878                           opt subtitle "HI-TECH Software Omniscient Code Generator (Lite mode) build 49521"
   879  0000                     ADRES equ 0FC3h ;# 
   880                           opt subtitle "HI-TECH Software Omniscient Code Generator (Lite mode) build 49521"
   881  0000                     ADRESL equ 0FC3h ;# 
   882                           opt subtitle "HI-TECH Software Omniscient Code Generator (Lite mode) build 49521"
   883  0000                     ADRESH equ 0FC4h ;# 
   884                           opt subtitle "HI-TECH Software Omniscient Code Generator (Lite mode) build 49521"
   885  0000                     SSPCON2 equ 0FC5h ;# 
   886                           opt subtitle "HI-TECH Software Omniscient Code Generator (Lite mode) build 49521"
   887  0000                     SSPCON1 equ 0FC6h ;# 
   888                           opt subtitle "HI-TECH Software Omniscient Code Generator (Lite mode) build 49521"
   889  0000                     SSPSTAT equ 0FC7h ;# 
   890                           opt subtitle "HI-TECH Software Omniscient Code Generator (Lite mode) build 49521"
   891  0000                     SSPADD equ 0FC8h ;# 
   892                           opt subtitle "HI-TECH Software Omniscient Code Generator (Lite mode) build 49521"
   893  0000                     SSPBUF equ 0FC9h ;# 
   894                           opt subtitle "HI-TECH Software Omniscient Code Generator (Lite mode) build 49521"
   895  0000                     T2CON equ 0FCAh ;# 
   896                           opt subtitle "HI-TECH Software Omniscient Code Generator (Lite mode) build 49521"
   897  0000                     PR2 equ 0FCBh ;# 
   898                           opt subtitle "HI-TECH Software Omniscient Code Generator (Lite mode) build 49521"
   899  0000                     MEMCON equ 0FCBh ;# 
   900                           opt subtitle "HI-TECH Software Omniscient Code Generator (Lite mode) build 49521"
   901  0000                     TMR2 equ 0FCCh ;# 
   902                           opt subtitle "HI-TECH Software Omniscient Code Generator (Lite mode) build 49521"
   903  0000                     T1CON equ 0FCDh ;# 
   904                           opt subtitle "HI-TECH Software Omniscient Code Generator (Lite mode) build 49521"
   905  0000                     TMR1 equ 0FCEh ;# 
   906                           opt subtitle "HI-TECH Software Omniscient Code Generator (Lite mode) build 49521"
   907  0000                     TMR1L equ 0FCEh ;# 
   908                           opt subtitle "HI-TECH Software Omniscient Code Generator (Lite mode) build 49521"
   909  0000                     TMR1H equ 0FCFh ;# 
   910                           opt subtitle "HI-TECH Software Omniscient Code Generator (Lite mode) build 49521"
   911  0000                     RCON equ 0FD0h ;# 
   912                           opt subtitle "HI-TECH Software Omniscient Code Generator (Lite mode) build 49521"
   913  0000                     WDTCON equ 0FD1h ;# 
   914                           opt subtitle "HI-TECH Software Omniscient Code Generator (Lite mode) build 49521"
   915  0000                     OSCCON2 equ 0FD2h ;# 
   916                           opt subtitle "HI-TECH Software Omniscient Code Generator (Lite mode) build 49521"
   917  0000                     OSCCON equ 0FD3h ;# 
   918                           opt subtitle "HI-TECH Software Omniscient Code Generator (Lite mode) build 49521"
   919  0000                     T0CON equ 0FD5h ;# 
   920                           opt subtitle "HI-TECH Software Omniscient Code Generator (Lite mode) build 49521"
   921  0000                     TMR0 equ 0FD6h ;# 
   922                           opt subtitle "HI-TECH Software Omniscient Code Generator (Lite mode) build 49521"
   923  0000                     TMR0L equ 0FD6h ;# 
   924                           opt subtitle "HI-TECH Software Omniscient Code Generator (Lite mode) build 49521"
   925  0000                     TMR0H equ 0FD7h ;# 
   926                           opt subtitle "HI-TECH Software Omniscient Code Generator (Lite mode) build 49521"
   927  0000                     STATUS equ 0FD8h ;# 
   928                           opt subtitle "HI-TECH Software Omniscient Code Generator (Lite mode) build 49521"
   929  0000                     FSR2 equ 0FD9h ;# 
   930                           opt subtitle "HI-TECH Software Omniscient Code Generator (Lite mode) build 49521"
   931  0000                     FSR2L equ 0FD9h ;# 
   932                           opt subtitle "HI-TECH Software Omniscient Code Generator (Lite mode) build 49521"
   933  0000                     FSR2H equ 0FDAh ;# 
   934                           opt subtitle "HI-TECH Software Omniscient Code Generator (Lite mode) build 49521"
   935  0000                     PLUSW2 equ 0FDBh ;# 
   936                           opt subtitle "HI-TECH Software Omniscient Code Generator (Lite mode) build 49521"
   937  0000                     PREINC2 equ 0FDCh ;# 
   938                           opt subtitle "HI-TECH Software Omniscient Code Generator (Lite mode) build 49521"
   939  0000                     POSTDEC2 equ 0FDDh ;# 
   940                           opt subtitle "HI-TECH Software Omniscient Code Generator (Lite mode) build 49521"
   941  0000                     POSTINC2 equ 0FDEh ;# 
   942                           opt subtitle "HI-TECH Software Omniscient Code Generator (Lite mode) build 49521"
   943  0000                     INDF2 equ 0FDFh ;# 
   944                           opt subtitle "HI-TECH Software Omniscient Code Generator (Lite mode) build 49521"
   945  0000                     BSR equ 0FE0h ;# 
   946                           opt subtitle "HI-TECH Software Omniscient Code Generator (Lite mode) build 49521"
   947  0000                     FSR1 equ 0FE1h ;# 
   948                           opt subtitle "HI-TECH Software Omniscient Code Generator (Lite mode) build 49521"
   949  0000                     FSR1L equ 0FE1h ;# 
   950                           opt subtitle "HI-TECH Software Omniscient Code Generator (Lite mode) build 49521"
   951  0000                     FSR1H equ 0FE2h ;# 
   952                           opt subtitle "HI-TECH Software Omniscient Code Generator (Lite mode) build 49521"
   953  0000                     PLUSW1 equ 0FE3h ;# 
   954                           opt subtitle "HI-TECH Software Omniscient Code Generator (Lite mode) build 49521"
   955  0000                     PREINC1 equ 0FE4h ;# 
   956                           opt subtitle "HI-TECH Software Omniscient Code Generator (Lite mode) build 49521"
   957  0000                     POSTDEC1 equ 0FE5h ;# 
   958                           opt subtitle "HI-TECH Software Omniscient Code Generator (Lite mode) build 49521"
   959  0000                     POSTINC1 equ 0FE6h ;# 
   960                           opt subtitle "HI-TECH Software Omniscient Code Generator (Lite mode) build 49521"
   961  0000                     INDF1 equ 0FE7h ;# 
   962                           opt subtitle "HI-TECH Software Omniscient Code Generator (Lite mode) build 49521"
   963  0000                     WREG equ 0FE8h ;# 
   964                           opt subtitle "HI-TECH Software Omniscient Code Generator (Lite mode) build 49521"
   965  0000                     FSR0 equ 0FE9h ;# 
   966                           opt subtitle "HI-TECH Software Omniscient Code Generator (Lite mode) build 49521"
   967  0000                     FSR0L equ 0FE9h ;# 
   968                           opt subtitle "HI-TECH Software Omniscient Code Generator (Lite mode) build 49521"
   969  0000                     FSR0H equ 0FEAh ;# 
   970                           opt subtitle "HI-TECH Software Omniscient Code Generator (Lite mode) build 49521"
   971  0000                     PLUSW0 equ 0FEBh ;# 
   972                           opt subtitle "HI-TECH Software Omniscient Code Generator (Lite mode) build 49521"
   973  0000                     PREINC0 equ 0FECh ;# 
   974                           opt subtitle "HI-TECH Software Omniscient Code Generator (Lite mode) build 49521"
   975  0000                     POSTDEC0 equ 0FEDh ;# 
   976                           opt subtitle "HI-TECH Software Omniscient Code Generator (Lite mode) build 49521"
   977  0000                     POSTINC0 equ 0FEEh ;# 
   978                           opt subtitle "HI-TECH Software Omniscient Code Generator (Lite mode) build 49521"
   979  0000                     INDF0 equ 0FEFh ;# 
   980                           opt subtitle "HI-TECH Software Omniscient Code Generator (Lite mode) build 49521"
   981  0000                     INTCON3 equ 0FF0h ;# 
   982                           opt subtitle "HI-TECH Software Omniscient Code Generator (Lite mode) build 49521"
   983  0000                     INTCON2 equ 0FF1h ;# 
   984                           opt subtitle "HI-TECH Software Omniscient Code Generator (Lite mode) build 49521"
   985  0000                     INTCON equ 0FF2h ;# 
   986                           opt subtitle "HI-TECH Software Omniscient Code Generator (Lite mode) build 49521"
   987  0000                     INTCON1 equ 0FF2h ;# 
   988                           opt subtitle "HI-TECH Software Omniscient Code Generator (Lite mode) build 49521"
   989  0000                     PROD equ 0FF3h ;# 
   990                           opt subtitle "HI-TECH Software Omniscient Code Generator (Lite mode) build 49521"
   991  0000                     PRODL equ 0FF3h ;# 
   992                           opt subtitle "HI-TECH Software Omniscient Code Generator (Lite mode) build 49521"
   993  0000                     PRODH equ 0FF4h ;# 
   994                           opt subtitle "HI-TECH Software Omniscient Code Generator (Lite mode) build 49521"
   995  0000                     TABLAT equ 0FF5h ;# 
   996                           opt subtitle "HI-TECH Software Omniscient Code Generator (Lite mode) build 49521"
   997  0000                     TBLPTR equ 0FF6h ;# 
   998                           opt subtitle "HI-TECH Software Omniscient Code Generator (Lite mode) build 49521"
   999  0000                     TBLPTRL equ 0FF6h ;# 
  1000                           opt subtitle "HI-TECH Software Omniscient Code Generator (Lite mode) build 49521"
  1001  0000                     TBLPTRH equ 0FF7h ;# 
  1002                           opt subtitle "HI-TECH Software Omniscient Code Generator (Lite mode) build 49521"
  1003  0000                     TBLPTRU equ 0FF8h ;# 
  1004                           opt subtitle "HI-TECH Software Omniscient Code Generator (Lite mode) build 49521"
  1005  0000                     PCLAT equ 0FF9h ;# 
  1006                           opt subtitle "HI-TECH Software Omniscient Code Generator (Lite mode) build 49521"
  1007  0000                     PC equ 0FF9h ;# 
  1008                           opt subtitle "HI-TECH Software Omniscient Code Generator (Lite mode) build 49521"
  1009  0000                     PCL equ 0FF9h ;# 
  1010                           opt subtitle "HI-TECH Software Omniscient Code Generator (Lite mode) build 49521"
  1011  0000                     PCLATH equ 0FFAh ;# 
  1012                           opt subtitle "HI-TECH Software Omniscient Code Generator (Lite mode) build 49521"
  1013  0000                     PCLATU equ 0FFBh ;# 
  1014                           opt subtitle "HI-TECH Software Omniscient Code Generator (Lite mode) build 49521"
  1015  0000                     STKPTR equ 0FFCh ;# 
  1016                           opt subtitle "HI-TECH Software Omniscient Code Generator (Lite mode) build 49521"
  1017  0000                     TOS equ 0FFDh ;# 
  1018                           opt subtitle "HI-TECH Software Omniscient Code Generator (Lite mode) build 49521"
  1019  0000                     TOSL equ 0FFDh ;# 
  1020                           opt subtitle "HI-TECH Software Omniscient Code Generator (Lite mode) build 49521"
  1021  0000                     TOSH equ 0FFEh ;# 
  1022                           opt subtitle "HI-TECH Software Omniscient Code Generator (Lite mode) build 49521"
  1023  0000                     TOSU equ 0FFFh ;# 
  1024                           opt subtitle "HI-TECH Software Omniscient Code Generator (Lite mode) build 49521"
  1025                           
  1026                           opt pagewidth 120
  1027  000008  EF04 F006          GOTO 0xc08 ;# 
  1028                           opt subtitle "HI-TECH Software Omniscient Code Generator (Lite mode) build 49521"
  1029                           
  1030                           opt pagewidth 120
  1031  000018  EF0C F006          GOTO 0xc18 ;# 
  1032                           opt subtitle "HI-TECH Software Omniscient Code Generator (Lite mode) build 49521"
  1033                           
  1034                           opt pagewidth 120
  1035                           
  1036                           	opt lm
  1037                           
  1038                           	processor	18F26K80
  1039                           porta	equ	0F80h
  1040                           portb	equ	0F81h
  1041                           portc	equ	0F82h
  1042                           portd	equ	0F83h
  1043                           porte	equ	0F84h
  1044                           lata	equ	0F89h
  1045  0000                     _TMR0	set	0xFD6
  1046                           opt subtitle "HI-TECH Software Omniscient Code Generator (Lite mode) build 49521"
  1047  0000                     _BRGCON1bits	set	0xE43
  1048                           opt subtitle "HI-TECH Software Omniscient Code Generator (Lite mode) build 49521"
  1049  0000                     _BRGCON2bits	set	0xE44
  1050                           opt subtitle "HI-TECH Software Omniscient Code Generator (Lite mode) build 49521"
  1051  0000                     _BRGCON3bits	set	0xE45
  1052                           opt subtitle "HI-TECH Software Omniscient Code Generator (Lite mode) build 49521"
  1053  0000                     _CANCON	set	0xF6F
  1054                           opt subtitle "HI-TECH Software Omniscient Code Generator (Lite mode) build 49521"
  1055  0000                     _CANSTAT	set	0xF6E
  1056                           opt subtitle "HI-TECH Software Omniscient Code Generator (Lite mode) build 49521"
  1057  0000                     _ECANCON	set	0xF72
  1058                           opt subtitle "HI-TECH Software Omniscient Code Generator (Lite mode) build 49521"
  1059  0000                     _EECON1bits	set	0xF7F
  1060                           opt subtitle "HI-TECH Software Omniscient Code Generator (Lite mode) build 49521"
  1061  0000                     _EECON2	set	0xF7E
  1062                           opt subtitle "HI-TECH Software Omniscient Code Generator (Lite mode) build 49521"
  1063  0000                     _INTCONbits	set	0xFF2
  1064                           opt subtitle "HI-TECH Software Omniscient Code Generator (Lite mode) build 49521"
  1065  0000                     _LATAbits	set	0xF89
  1066                           opt subtitle "HI-TECH Software Omniscient Code Generator (Lite mode) build 49521"
  1067  0000                     _MSEL0	set	0xE79
  1068                           opt subtitle "HI-TECH Software Omniscient Code Generator (Lite mode) build 49521"
  1069  0000                     _RXF0EIDH	set	0xEE2
  1070                           opt subtitle "HI-TECH Software Omniscient Code Generator (Lite mode) build 49521"
  1071  0000                     _RXF0EIDL	set	0xEE3
  1072                           opt subtitle "HI-TECH Software Omniscient Code Generator (Lite mode) build 49521"
  1073  0000                     _RXF0SIDH	set	0xEE0
  1074                           opt subtitle "HI-TECH Software Omniscient Code Generator (Lite mode) build 49521"
  1075  0000                     _RXF0SIDL	set	0xEE1
  1076                           opt subtitle "HI-TECH Software Omniscient Code Generator (Lite mode) build 49521"
  1077  0000                     _RXF0SIDLbits	set	0xEE1
  1078                           opt subtitle "HI-TECH Software Omniscient Code Generator (Lite mode) build 49521"
  1079  0000                     _RXFBCON0	set	0xE71
  1080                           opt subtitle "HI-TECH Software Omniscient Code Generator (Lite mode) build 49521"
  1081  0000                     _RXFBCON1	set	0xE72
  1082                           opt subtitle "HI-TECH Software Omniscient Code Generator (Lite mode) build 49521"
  1083  0000                     _RXFBCON2	set	0xE73
  1084                           opt subtitle "HI-TECH Software Omniscient Code Generator (Lite mode) build 49521"
  1085  0000                     _RXFBCON3	set	0xE74
  1086                           opt subtitle "HI-TECH Software Omniscient Code Generator (Lite mode) build 49521"
  1087  0000                     _RXFBCON4	set	0xE75
  1088                           opt subtitle "HI-TECH Software Omniscient Code Generator (Lite mode) build 49521"
  1089  0000                     _RXFBCON5	set	0xE76
  1090                           opt subtitle "HI-TECH Software Omniscient Code Generator (Lite mode) build 49521"
  1091  0000                     _RXFBCON6	set	0xE77
  1092                           opt subtitle "HI-TECH Software Omniscient Code Generator (Lite mode) build 49521"
  1093  0000                     _RXFBCON7	set	0xE78
  1094                           opt subtitle "HI-TECH Software Omniscient Code Generator (Lite mode) build 49521"
  1095  0000                     _RXFCON0	set	0xE46
  1096                           opt subtitle "HI-TECH Software Omniscient Code Generator (Lite mode) build 49521"
  1097  0000                     _RXFCON1	set	0xE47
  1098                           opt subtitle "HI-TECH Software Omniscient Code Generator (Lite mode) build 49521"
  1099  0000                     _RXM0EIDH	set	0xEFA
  1100                           opt subtitle "HI-TECH Software Omniscient Code Generator (Lite mode) build 49521"
  1101  0000                     _RXM0EIDL	set	0xEFB
  1102                           opt subtitle "HI-TECH Software Omniscient Code Generator (Lite mode) build 49521"
  1103  0000                     _RXM0SIDH	set	0xEF8
  1104                           opt subtitle "HI-TECH Software Omniscient Code Generator (Lite mode) build 49521"
  1105  0000                     _RXM0SIDL	set	0xEF9
  1106                           opt subtitle "HI-TECH Software Omniscient Code Generator (Lite mode) build 49521"
  1107  0000                     _T0CON	set	0xFD5
  1108                           opt subtitle "HI-TECH Software Omniscient Code Generator (Lite mode) build 49521"
  1109  0000                     _T0CONbits	set	0xFD5
  1110                           opt subtitle "HI-TECH Software Omniscient Code Generator (Lite mode) build 49521"
  1111  0000                     _TBLPTRH	set	0xFF7
  1112                           opt subtitle "HI-TECH Software Omniscient Code Generator (Lite mode) build 49521"
  1113  0000                     _TBLPTRL	set	0xFF6
  1114                           opt subtitle "HI-TECH Software Omniscient Code Generator (Lite mode) build 49521"
  1115  0000                     _TBLPTRU	set	0xFF8
  1116                           opt subtitle "HI-TECH Software Omniscient Code Generator (Lite mode) build 49521"
  1117  0000                     _TRISA	set	0xF92
  1118                           opt subtitle "HI-TECH Software Omniscient Code Generator (Lite mode) build 49521"
  1119  0000                     _TRISAbits	set	0xF92
  1120                           opt subtitle "HI-TECH Software Omniscient Code Generator (Lite mode) build 49521"
  1121  0000                     _TRISB	set	0xF93
  1122                           opt subtitle "HI-TECH Software Omniscient Code Generator (Lite mode) build 49521"
  1123  0000                     _TRISC	set	0xF94
  1124                           opt subtitle "HI-TECH Software Omniscient Code Generator (Lite mode) build 49521"
  1125  0000                     _TRISCbits	set	0xF94
  1126                           opt subtitle "HI-TECH Software Omniscient Code Generator (Lite mode) build 49521"
  1127  0000                     _TMR0IF	set	0x7F92
  1128                           opt subtitle "HI-TECH Software Omniscient Code Generator (Lite mode) build 49521"
  1129  0000                     _B0CON	set	0xE80
  1130                           opt subtitle "HI-TECH Software Omniscient Code Generator (Lite mode) build 49521"
  1131  0000                     _B1CON	set	0xE90
  1132                           opt subtitle "HI-TECH Software Omniscient Code Generator (Lite mode) build 49521"
  1133  0000                     _B2CON	set	0xEA0
  1134                           opt subtitle "HI-TECH Software Omniscient Code Generator (Lite mode) build 49521"
  1135  0000                     _B3CON	set	0xEB0
  1136                           opt subtitle "HI-TECH Software Omniscient Code Generator (Lite mode) build 49521"
  1137  0000                     _B4CON	set	0xEC0
  1138                           opt subtitle "HI-TECH Software Omniscient Code Generator (Lite mode) build 49521"
  1139  0000                     _B5CON	set	0xED0
  1140                           opt subtitle "HI-TECH Software Omniscient Code Generator (Lite mode) build 49521"
  1141  0000                     _RXB0CON	set	0xF60
  1142                           opt subtitle "HI-TECH Software Omniscient Code Generator (Lite mode) build 49521"
  1143  0000                     _RXB1CON	set	0xF30
  1144                           opt subtitle "HI-TECH Software Omniscient Code Generator (Lite mode) build 49521"
  1145                           
  1146  000682                     __ptext0:
  1147                           opt subtitle "HI-TECH Software Omniscient Code Generator (Lite mode) build 49521"
  1148                           
  1149  0000                     __CFG_INTOSCSEL$HIGH equ 0x0
  1150                           opt subtitle "HI-TECH Software Omniscient Code Generator (Lite mode) build 49521"
  1151  0000                     __CFG_SOSCSEL$DIG equ 0x0
  1152                           opt subtitle "HI-TECH Software Omniscient Code Generator (Lite mode) build 49521"
  1153  0000                     __CFG_XINST$OFF equ 0x0
  1154                           opt subtitle "HI-TECH Software Omniscient Code Generator (Lite mode) build 49521"
  1155  0000                     __CFG_RETEN$OFF equ 0x0
  1156                           opt subtitle "HI-TECH Software Omniscient Code Generator (Lite mode) build 49521"
  1157  0000                     __CFG_IESO$OFF equ 0x0
  1158                           opt subtitle "HI-TECH Software Omniscient Code Generator (Lite mode) build 49521"
  1159  0000                     __CFG_FOSC$HS1 equ 0x0
  1160                           opt subtitle "HI-TECH Software Omniscient Code Generator (Lite mode) build 49521"
  1161  0000                     __CFG_FCMEN$OFF equ 0x0
  1162                           opt subtitle "HI-TECH Software Omniscient Code Generator (Lite mode) build 49521"
  1163  0000                     __CFG_PLLCFG$OFF equ 0x0
  1164                           opt subtitle "HI-TECH Software Omniscient Code Generator (Lite mode) build 49521"
  1165  0000                     __CFG_BOREN$ON equ 0x0
  1166                           opt subtitle "HI-TECH Software Omniscient Code Generator (Lite mode) build 49521"
  1167  0000                     __CFG_BORPWR$ZPBORMV equ 0x0
  1168                           opt subtitle "HI-TECH Software Omniscient Code Generator (Lite mode) build 49521"
  1169  0000                     __CFG_BORV$1 equ 0x0
  1170                           opt subtitle "HI-TECH Software Omniscient Code Generator (Lite mode) build 49521"
  1171  0000                     __CFG_PWRTEN$ON equ 0x0
  1172                           opt subtitle "HI-TECH Software Omniscient Code Generator (Lite mode) build 49521"
  1173  0000                     __CFG_WDTPS$1024 equ 0x0
  1174                           opt subtitle "HI-TECH Software Omniscient Code Generator (Lite mode) build 49521"
  1175  0000                     __CFG_WDTEN$SWDTDIS equ 0x0
  1176                           opt subtitle "HI-TECH Software Omniscient Code Generator (Lite mode) build 49521"
  1177  0000                     __CFG_CANMX$PORTC equ 0x0
  1178                           opt subtitle "HI-TECH Software Omniscient Code Generator (Lite mode) build 49521"
  1179  0000                     __CFG_MSSPMSK$MSK7 equ 0x0
  1180                           opt subtitle "HI-TECH Software Omniscient Code Generator (Lite mode) build 49521"
  1181  0000                     __CFG_MCLRE$ON equ 0x0
  1182                           opt subtitle "HI-TECH Software Omniscient Code Generator (Lite mode) build 49521"
  1183  0000                     __CFG_STVREN$ON equ 0x0
  1184                           opt subtitle "HI-TECH Software Omniscient Code Generator (Lite mode) build 49521"
  1185  0000                     __CFG_BBSIZ$BB1K equ 0x0
  1186                           opt subtitle "HI-TECH Software Omniscient Code Generator (Lite mode) build 49521"
  1187  0000                     __CFG_CP0$OFF equ 0x0
  1188                           opt subtitle "HI-TECH Software Omniscient Code Generator (Lite mode) build 49521"
  1189  0000                     __CFG_CP1$OFF equ 0x0
  1190                           opt subtitle "HI-TECH Software Omniscient Code Generator (Lite mode) build 49521"
  1191  0000                     __CFG_CP2$OFF equ 0x0
  1192                           opt subtitle "HI-TECH Software Omniscient Code Generator (Lite mode) build 49521"
  1193  0000                     __CFG_CP3$OFF equ 0x0
  1194                           opt subtitle "HI-TECH Software Omniscient Code Generator (Lite mode) build 49521"
  1195  0000                     __CFG_CPD$OFF equ 0x0
  1196                           opt subtitle "HI-TECH Software Omniscient Code Generator (Lite mode) build 49521"
  1197  0000                     __CFG_CPB$OFF equ 0x0
  1198                           opt subtitle "HI-TECH Software Omniscient Code Generator (Lite mode) build 49521"
  1199  0000                     __CFG_WRT0$OFF equ 0x0
  1200                           opt subtitle "HI-TECH Software Omniscient Code Generator (Lite mode) build 49521"
  1201  0000                     __CFG_WRT1$OFF equ 0x0
  1202                           opt subtitle "HI-TECH Software Omniscient Code Generator (Lite mode) build 49521"
  1203  0000                     __CFG_WRT2$OFF equ 0x0
  1204                           opt subtitle "HI-TECH Software Omniscient Code Generator (Lite mode) build 49521"
  1205  0000                     __CFG_WRT3$OFF equ 0x0
  1206                           opt subtitle "HI-TECH Software Omniscient Code Generator (Lite mode) build 49521"
  1207  0000                     __CFG_WRTB$ON equ 0x0
  1208                           opt subtitle "HI-TECH Software Omniscient Code Generator (Lite mode) build 49521"
  1209  0000                     __CFG_WRTC$ON equ 0x0
  1210                           opt subtitle "HI-TECH Software Omniscient Code Generator (Lite mode) build 49521"
  1211  0000                     __CFG_WRTD$OFF equ 0x0
  1212                           opt subtitle "HI-TECH Software Omniscient Code Generator (Lite mode) build 49521"
  1213  0000                     __CFG_EBTR0$OFF equ 0x0
  1214                           opt subtitle "HI-TECH Software Omniscient Code Generator (Lite mode) build 49521"
  1215  0000                     __CFG_EBTR1$OFF equ 0x0
  1216                           opt subtitle "HI-TECH Software Omniscient Code Generator (Lite mode) build 49521"
  1217  0000                     __CFG_EBTR2$OFF equ 0x0
  1218                           opt subtitle "HI-TECH Software Omniscient Code Generator (Lite mode) build 49521"
  1219  0000                     __CFG_EBTR3$OFF equ 0x0
  1220                           opt subtitle "HI-TECH Software Omniscient Code Generator (Lite mode) build 49521"
  1221  0000                     __CFG_EBTRB$OFF equ 0x0
  1222                           opt subtitle "HI-TECH Software Omniscient Code Generator (Lite mode) build 49521"
  1223                           
  1224                           opt pagewidth 120
  1225                           
  1226  0003C2                     __pcinit:
  1227                           opt subtitle "HI-TECH Software Omniscient Code Generator (Lite mode) build 49521"
  1228  0003C2                     start_initialization:
  1229                           opt subtitle "HI-TECH Software Omniscient Code Generator (Lite mode) build 49521"
  1230                           
  1231  0003C2                     __initialization:
  1232                           opt subtitle "HI-TECH Software Omniscient Code Generator (Lite mode) build 49521"
  1233                           
  1234  000025                     __pbssCOMRAM:
  1235                           opt subtitle "HI-TECH Software Omniscient Code Generator (Lite mode) build 49521"
  1236  000025                     _SourceAddr:
  1237  000025                            ds      4
  1238  000029                     ZapiszDane@i:
  1239  000029                            ds      1
  1240                           opt subtitle "HI-TECH Software Omniscient Code Generator (Lite mode) build 49521"
  1241  00002A                     _counter:
  1242  00002A                            ds      1
  1243                           opt subtitle "HI-TECH Software Omniscient Code Generator (Lite mode) build 49521"
  1244  00002B                     _canRxMessage:
  1245  00002B                            ds      17
  1246                           opt subtitle "HI-TECH Software Omniscient Code Generator (Lite mode) build 49521"
  1247                           
  1248  000060                     __pbssBANK0:
  1249                           opt subtitle "HI-TECH Software Omniscient Code Generator (Lite mode) build 49521"
  1250  000060                     _buforCAN:
  1251  000060                            ds      72
  1252                           opt subtitle "HI-TECH Software Omniscient Code Generator (Lite mode) build 49521"
  1253                           
  1254                           opt pagewidth 120
  1255  0003C2  EE00  F060         lfsr	0,__pbssBANK0
  1256  0003C6  0E48               movlw	72
  1257  0003C8                     clear_0:
  1258  0003C8  6AEE               clrf	postinc0,c
  1259  0003CA  06E8               decf	wreg
  1260  0003CC  E1FD               bnz	clear_0
  1261                           opt subtitle "HI-TECH Software Omniscient Code Generator (Lite mode) build 49521"
  1262                           
  1263  0003CE  EE00  F025         lfsr	0,__pbssCOMRAM
  1264  0003D2  0E17               movlw	23
  1265  0003D4                     clear_1:
  1266  0003D4  6AEE               clrf	postinc0,c
  1267  0003D6  06E8               decf	wreg
  1268  0003D8  E1FD               bnz	clear_1
  1269                           opt subtitle "HI-TECH Software Omniscient Code Generator (Lite mode) build 49521"
  1270                           
  1271                           opt pagewidth 120
  1272                           
  1273                           	opt lm
  1274  0003DA                     end_of_initialization:
  1275  0003DA                     __end_of__initialization:	GLOBAL	__Lmediumconst
  1276  0003DA  0E00               	movlw	low highword(__Lmediumconst)
  1277  0003DC  6EF8               	movwf	tblptru
  1278  0003DE  0100               movlb 0
  1279  0003E0  EF41  F003         goto _main	;jump to C main() function
  1280                           opt subtitle "HI-TECH Software Omniscient Code Generator (Lite mode) build 49521"
  1281                           
  1282  000001                     __pcstackCOMRAM:
  1283                           opt subtitle "HI-TECH Software Omniscient Code Generator (Lite mode) build 49521"
  1284  000001                     ?_EraseFlash:	; 0 bytes @ 0x0
  1285                           opt subtitle "HI-TECH Software Omniscient Code Generator (Lite mode) build 49521"
  1286  000001                     ?_WriteBytesFlash:	; 0 bytes @ 0x0
  1287  000001                     ?_ZapiszDane:	; 0 bytes @ 0x0
  1288  000001                     ?_ResetDevice:	; 0 bytes @ 0x0
  1289  000001                     ??_ResetDevice:	; 0 bytes @ 0x0
  1290  000001                     ?_main:	; 2 bytes @ 0x0
  1291                           opt subtitle "HI-TECH Software Omniscient Code Generator (Lite mode) build 49521"
  1292  000001                     ?___awdiv:	; 2 bytes @ 0x0
  1293                           opt subtitle "HI-TECH Software Omniscient Code Generator (Lite mode) build 49521"
  1294  000001                     ___awdiv@dividend:	; 2 bytes @ 0x0
  1295                           opt subtitle "HI-TECH Software Omniscient Code Generator (Lite mode) build 49521"
  1296  000001                     EraseFlash@startaddr:	; 4 bytes @ 0x0
  1297                           opt subtitle "HI-TECH Software Omniscient Code Generator (Lite mode) build 49521"
  1298  000001                     WriteBytesFlash@startaddr:	; 4 bytes @ 0x0
  1299  000001                     	ds   2
  1300                           opt subtitle "HI-TECH Software Omniscient Code Generator (Lite mode) build 49521"
  1301  000003                     ___awdiv@divisor:	; 2 bytes @ 0x2
  1302  000003                     	ds   2
  1303  000005                     ??___awdiv:	; 0 bytes @ 0x4
  1304                           opt subtitle "HI-TECH Software Omniscient Code Generator (Lite mode) build 49521"
  1305  000005                     WriteBytesFlash@num_bytes:	; 2 bytes @ 0x4
  1306                           opt subtitle "HI-TECH Software Omniscient Code Generator (Lite mode) build 49521"
  1307  000005                     EraseFlash@endaddr:	; 4 bytes @ 0x4
  1308  000005                     	ds   1
  1309                           opt subtitle "HI-TECH Software Omniscient Code Generator (Lite mode) build 49521"
  1310  000006                     ___awdiv@counter:	; 1 bytes @ 0x5
  1311  000006                     	ds   1
  1312                           opt subtitle "HI-TECH Software Omniscient Code Generator (Lite mode) build 49521"
  1313  000007                     ___awdiv@sign:	; 1 bytes @ 0x6
  1314                           opt subtitle "HI-TECH Software Omniscient Code Generator (Lite mode) build 49521"
  1315  000007                     WriteBytesFlash@flash_array:	; 2 bytes @ 0x6
  1316  000007                     	ds   1
  1317                           opt subtitle "HI-TECH Software Omniscient Code Generator (Lite mode) build 49521"
  1318  000008                     ___awdiv@quotient:	; 2 bytes @ 0x7
  1319  000008                     	ds   1
  1320  000009                     ??_EraseFlash:	; 0 bytes @ 0x8
  1321  000009                     ??_WriteBytesFlash:	; 0 bytes @ 0x8
  1322  000009                     	ds   1
  1323                           opt subtitle "HI-TECH Software Omniscient Code Generator (Lite mode) build 49521"
  1324  00000A                     EraseFlash@flag:	; 1 bytes @ 0x9
  1325  00000A                     	ds   1
  1326                           opt subtitle "HI-TECH Software Omniscient Code Generator (Lite mode) build 49521"
  1327  00000B                     EraseFlash@flash_addr:	; 4 bytes @ 0xA
  1328  00000B                     	ds   2
  1329                           opt subtitle "HI-TECH Software Omniscient Code Generator (Lite mode) build 49521"
  1330  00000D                     WriteBytesFlash@saveptr:	; 3 bytes @ 0xC
  1331  00000D                     	ds   3
  1332                           opt subtitle "HI-TECH Software Omniscient Code Generator (Lite mode) build 49521"
  1333  000010                     WriteBytesFlash@write_byte:	; 1 bytes @ 0xF
  1334  000010                     	ds   1
  1335                           opt subtitle "HI-TECH Software Omniscient Code Generator (Lite mode) build 49521"
  1336  000011                     WriteBytesFlash@flag:	; 1 bytes @ 0x10
  1337  000011                     	ds   1
  1338                           opt subtitle "HI-TECH Software Omniscient Code Generator (Lite mode) build 49521"
  1339  000012                     WriteBytesFlash@startptr:	; 3 bytes @ 0x11
  1340  000012                     	ds   3
  1341                           opt subtitle "HI-TECH Software Omniscient Code Generator (Lite mode) build 49521"
  1342  000015                     WriteBytesFlash@saddress:	; 4 bytes @ 0x14
  1343  000015                     	ds   4
  1344  000019                     ??_ZapiszDane:	; 0 bytes @ 0x18
  1345  000019                     	ds   2
  1346                           opt subtitle "HI-TECH Software Omniscient Code Generator (Lite mode) build 49521"
  1347  00001B                     ZapiszDane@k:	; 1 bytes @ 0x1A
  1348  00001B                     	ds   1
  1349                           opt subtitle "HI-TECH Software Omniscient Code Generator (Lite mode) build 49521"
  1350  00001C                     ?_OdbierzRamke:	; 0 bytes @ 0x1B
  1351                           opt subtitle "HI-TECH Software Omniscient Code Generator (Lite mode) build 49521"
  1352  00001C                     OdbierzRamke@message:	; 2 bytes @ 0x1B
  1353  00001C                     	ds   2
  1354  00001E                     ??_OdbierzRamke:	; 0 bytes @ 0x1D
  1355  00001E                     	ds   2
  1356                           opt subtitle "HI-TECH Software Omniscient Code Generator (Lite mode) build 49521"
  1357  000020                     OdbierzRamke@i:	; 1 bytes @ 0x1F
  1358  000020                     	ds   1
  1359                           opt subtitle "HI-TECH Software Omniscient Code Generator (Lite mode) build 49521"
  1360  000021                     OdbierzRamke@pointerU8:	; 2 bytes @ 0x20
  1361  000021                     	ds   2
  1362  000023                     ??_main:	; 0 bytes @ 0x22
  1363  000023                     	ds   1
  1364                           opt subtitle "HI-TECH Software Omniscient Code Generator (Lite mode) build 49521"
  1365  000024                     main@Delay:	; 1 bytes @ 0x23
  1366  000024                     	ds   1
  1367                           opt subtitle "HI-TECH Software Omniscient Code Generator (Lite mode) build 49521"
  1368                           
  1369                           opt pagewidth 120
  1370                           
  1371                           	opt lm
  1372                           
  1373                           	processor	18F26K80
  1374                           porta	equ	0F80h
  1375                           portb	equ	0F81h
  1376                           portc	equ	0F82h
  1377                           portd	equ	0F83h
  1378                           porte	equ	0F84h
  1379                           lata	equ	0F89h
  1380                           latb	equ	0F8Ah
  1381                           latc	equ	0F8Bh
  1382                           latd	equ	0F8Ch
  1383                           late	equ	0F8Dh
  1384                           trisa	equ	0F92h
  1385                           trisb	equ	0F93h
  1386                           trisc	equ	0F94h
  1387                           trisd	equ	0F95h
  1388                           trise	equ	0F96h
  1389                           pie1	equ	0F9Dh
  1390                           pir1	equ	0F9Eh
  1391                           ipr1	equ	0F9Fh
  1392                           pie2	equ	0FA0h
  1393                           pir2	equ	0FA1h
  1394                           ipr2	equ	0FA2h
  1395                           t3con	equ	0FB1h
  1396                           tmr3l	equ	0FB2h
  1397                           tmr3h	equ	0FB3h
  1398                           ccp1con	equ	0FBDh
  1399                           ccpr1l	equ	0FBEh
  1400                           ccpr1h	equ	0FBFh
  1401                           adcon1	equ	0FC1h
  1402                           adcon0	equ	0FC2h
  1403                           adresl	equ	0FC3h
  1404                           adresh	equ	0FC4h
  1405                           sspcon2	equ	0FC5h
  1406                           sspcon1	equ	0FC6h
  1407                           sspstat	equ	0FC7h
  1408                           sspadd	equ	0FC8h
  1409                           sspbuf	equ	0FC9h
  1410                           t2con	equ	0FCAh
  1411                           pr2	equ	0FCBh
  1412                           tmr2	equ	0FCCh
  1413                           t1con	equ	0FCDh
  1414                           tmr1l	equ	0FCEh
  1415                           tmr1h	equ	0FCFh
  1416                           rcon	equ	0FD0h
  1417                           wdtcon	equ	0FD1h
  1418                           lvdcon	equ	0FD2h
  1419                           osccon	equ	0FD3h
  1420                           t0con	equ	0FD5h
  1421                           tmr0l	equ	0FD6h
  1422                           tmr0h	equ	0FD7h
  1423                           status	equ	0FD8h
  1424                           fsr2	equ	0FD9h
  1425                           fsr2l	equ	0FD9h
  1426                           fsr2h	equ	0FDAh
  1427                           plusw2	equ	0FDBh
  1428                           preinc2	equ	0FDCh
  1429                           postdec2	equ	0FDDh
  1430                           postinc2	equ	0FDEh
  1431                           indf2	equ	0FDFh
  1432                           bsr	equ	0FE0h
  1433                           fsr1	equ	0FE1h
  1434                           fsr1l	equ	0FE1h
  1435                           fsr1h	equ	0FE2h
  1436                           plusw1	equ	0FE3h
  1437                           preinc1	equ	0FE4h
  1438                           postdec1	equ	0FE5h
  1439                           postinc1	equ	0FE6h
  1440                           indf1	equ	0FE7h
  1441                           wreg	equ	0FE8h
  1442                           fsr0	equ	0FE9h
  1443                           fsr0l	equ	0FE9h
  1444                           fsr0h	equ	0FEAh
  1445                           plusw0	equ	0FEBh
  1446                           preinc0	equ	0FECh
  1447                           postdec0	equ	0FEDh
  1448                           postinc0	equ	0FEEh
  1449                           indf0	equ	0FEFh
  1450                           intcon3	equ	0FF0h
  1451                           intcon2	equ	0FF1h
  1452                           intcon	equ	0FF2h
  1453                           prod	equ	0FF3h
  1454                           prodl	equ	0FF3h
  1455                           prodh	equ	0FF4h
  1456                           tablat	equ	0FF5h
  1457                           tblptr	equ	0FF6h
  1458                           tblptrl	equ	0FF6h
  1459                           tblptrh	equ	0FF7h
  1460                           tblptru	equ	0FF8h
  1461                           pcl	equ	0FF9h
  1462                           pclat	equ	0FFAh
  1463                           pclath	equ	0FFAh
  1464                           pclatu	equ	0FFBh
  1465                           stkptr	equ	0FFCh
  1466                           tosl	equ	0FFDh
  1467                           tosh	equ	0FFEh
  1468                           tosu	equ	0FFFh
  1469                           skipnz macro
  1470                           	btfsc	status,2
  1471                           	endm
  1472                           	global	__ramtop
  1473                           	global	__accesstop
  1474                           # 46 "C:\Program Files (x86)\Microchip\xc8\v1.12\include\pic18f26k80.h"
  1475                           RXERRCNT equ 0E41h ;# 
  1476                           # 115 "C:\Program Files (x86)\Microchip\xc8\v1.12\include\pic18f26k80.h"
  1477                           TXERRCNT equ 0E42h ;# 
  1478                           # 184 "C:\Program Files (x86)\Microchip\xc8\v1.12\include\pic18f26k80.h"
  1479                           BRGCON1 equ 0E43h ;# 
  1480                           # 259 "C:\Program Files (x86)\Microchip\xc8\v1.12\include\pic18f26k80.h"
  1481                           BRGCON2 equ 0E44h ;# 
  1482                           # 343 "C:\Program Files (x86)\Microchip\xc8\v1.12\include\pic18f26k80.h"
  1483                           BRGCON3 equ 0E45h ;# 
  1484                           # 395 "C:\Program Files (x86)\Microchip\xc8\v1.12\include\pic18f26k80.h"
  1485                           RXFCON0 equ 0E46h ;# 
  1486                           # 456 "C:\Program Files (x86)\Microchip\xc8\v1.12\include\pic18f26k80.h"
  1487                           RXFCON1 equ 0E47h ;# 
  1488                           # 517 "C:\Program Files (x86)\Microchip\xc8\v1.12\include\pic18f26k80.h"
  1489                           RXF6SIDH equ 0E48h ;# 
  1490                           # 657 "C:\Program Files (x86)\Microchip\xc8\v1.12\include\pic18f26k80.h"
  1491                           RXF6SIDL equ 0E49h ;# 
  1492                           # 776 "C:\Program Files (x86)\Microchip\xc8\v1.12\include\pic18f26k80.h"
  1493                           RXF6EIDH equ 0E4Ah ;# 
  1494                           # 916 "C:\Program Files (x86)\Microchip\xc8\v1.12\include\pic18f26k80.h"
  1495                           RXF6EIDL equ 0E4Bh ;# 
  1496                           # 1056 "C:\Program Files (x86)\Microchip\xc8\v1.12\include\pic18f26k80.h"
  1497                           RXF7SIDH equ 0E4Ch ;# 
  1498                           # 1196 "C:\Program Files (x86)\Microchip\xc8\v1.12\include\pic18f26k80.h"
  1499                           RXF7SIDL equ 0E4Dh ;# 
  1500                           # 1315 "C:\Program Files (x86)\Microchip\xc8\v1.12\include\pic18f26k80.h"
  1501                           RXF7EIDH equ 0E4Eh ;# 
  1502                           # 1455 "C:\Program Files (x86)\Microchip\xc8\v1.12\include\pic18f26k80.h"
  1503                           RXF7EIDL equ 0E4Fh ;# 
  1504                           # 1595 "C:\Program Files (x86)\Microchip\xc8\v1.12\include\pic18f26k80.h"
  1505                           RXF8SIDH equ 0E50h ;# 
  1506                           # 1735 "C:\Program Files (x86)\Microchip\xc8\v1.12\include\pic18f26k80.h"
  1507                           RXF8SIDL equ 0E51h ;# 
  1508                           # 1854 "C:\Program Files (x86)\Microchip\xc8\v1.12\include\pic18f26k80.h"
  1509                           RXF8EIDH equ 0E52h ;# 
  1510                           # 1994 "C:\Program Files (x86)\Microchip\xc8\v1.12\include\pic18f26k80.h"
  1511                           RXF8EIDL equ 0E53h ;# 
  1512                           # 2134 "C:\Program Files (x86)\Microchip\xc8\v1.12\include\pic18f26k80.h"
  1513                           RXF9SIDH equ 0E54h ;# 
  1514                           # 2274 "C:\Program Files (x86)\Microchip\xc8\v1.12\include\pic18f26k80.h"
  1515                           RXF9SIDL equ 0E55h ;# 
  1516                           # 2393 "C:\Program Files (x86)\Microchip\xc8\v1.12\include\pic18f26k80.h"
  1517                           RXF9EIDH equ 0E56h ;# 
  1518                           # 2533 "C:\Program Files (x86)\Microchip\xc8\v1.12\include\pic18f26k80.h"
  1519                           RXF9EIDL equ 0E57h ;# 
  1520                           # 2673 "C:\Program Files (x86)\Microchip\xc8\v1.12\include\pic18f26k80.h"
  1521                           RXF10SIDH equ 0E58h ;# 
  1522                           # 2813 "C:\Program Files (x86)\Microchip\xc8\v1.12\include\pic18f26k80.h"
  1523                           RXF10SIDL equ 0E59h ;# 
  1524                           # 2932 "C:\Program Files (x86)\Microchip\xc8\v1.12\include\pic18f26k80.h"
  1525                           RXF10EIDH equ 0E5Ah ;# 
  1526                           # 3072 "C:\Program Files (x86)\Microchip\xc8\v1.12\include\pic18f26k80.h"
  1527                           RXF10EIDL equ 0E5Bh ;# 
  1528                           # 3212 "C:\Program Files (x86)\Microchip\xc8\v1.12\include\pic18f26k80.h"
  1529                           RXF11SIDH equ 0E5Ch ;# 
  1530                           # 3352 "C:\Program Files (x86)\Microchip\xc8\v1.12\include\pic18f26k80.h"
  1531                           RXF11SIDL equ 0E5Dh ;# 
  1532                           # 3471 "C:\Program Files (x86)\Microchip\xc8\v1.12\include\pic18f26k80.h"
  1533                           RXF11EIDH equ 0E5Eh ;# 
  1534                           # 3611 "C:\Program Files (x86)\Microchip\xc8\v1.12\include\pic18f26k80.h"
  1535                           RXF11EIDL equ 0E5Fh ;# 
  1536                           # 3751 "C:\Program Files (x86)\Microchip\xc8\v1.12\include\pic18f26k80.h"
  1537                           RXF12SIDH equ 0E60h ;# 
  1538                           # 3891 "C:\Program Files (x86)\Microchip\xc8\v1.12\include\pic18f26k80.h"
  1539                           RXF12SIDL equ 0E61h ;# 
  1540                           # 4010 "C:\Program Files (x86)\Microchip\xc8\v1.12\include\pic18f26k80.h"
  1541                           RXF12EIDH equ 0E62h ;# 
  1542                           # 4150 "C:\Program Files (x86)\Microchip\xc8\v1.12\include\pic18f26k80.h"
  1543                           RXF12EIDL equ 0E63h ;# 
  1544                           # 4290 "C:\Program Files (x86)\Microchip\xc8\v1.12\include\pic18f26k80.h"
  1545                           RXF13SIDH equ 0E64h ;# 
  1546                           # 4430 "C:\Program Files (x86)\Microchip\xc8\v1.12\include\pic18f26k80.h"
  1547                           RXF13SIDL equ 0E65h ;# 
  1548                           # 4549 "C:\Program Files (x86)\Microchip\xc8\v1.12\include\pic18f26k80.h"
  1549                           RXF13EIDH equ 0E66h ;# 
  1550                           # 4689 "C:\Program Files (x86)\Microchip\xc8\v1.12\include\pic18f26k80.h"
  1551                           RXF13EIDL equ 0E67h ;# 
  1552                           # 4829 "C:\Program Files (x86)\Microchip\xc8\v1.12\include\pic18f26k80.h"
  1553                           RXF14SIDH equ 0E68h ;# 
  1554                           # 4969 "C:\Program Files (x86)\Microchip\xc8\v1.12\include\pic18f26k80.h"
  1555                           RXF14SIDL equ 0E69h ;# 
  1556                           # 5088 "C:\Program Files (x86)\Microchip\xc8\v1.12\include\pic18f26k80.h"
  1557                           RXF14EIDH equ 0E6Ah ;# 
  1558                           # 5228 "C:\Program Files (x86)\Microchip\xc8\v1.12\include\pic18f26k80.h"
  1559                           RXF14EIDL equ 0E6Bh ;# 
  1560                           # 5368 "C:\Program Files (x86)\Microchip\xc8\v1.12\include\pic18f26k80.h"
  1561                           RXF15SIDH equ 0E6Ch ;# 
  1562                           # 5508 "C:\Program Files (x86)\Microchip\xc8\v1.12\include\pic18f26k80.h"
  1563                           RXF15SIDL equ 0E6Dh ;# 
  1564                           # 5627 "C:\Program Files (x86)\Microchip\xc8\v1.12\include\pic18f26k80.h"
  1565                           RXF15EIDH equ 0E6Eh ;# 
  1566                           # 5767 "C:\Program Files (x86)\Microchip\xc8\v1.12\include\pic18f26k80.h"
  1567                           RXF15EIDL equ 0E6Fh ;# 
  1568                           # 5907 "C:\Program Files (x86)\Microchip\xc8\v1.12\include\pic18f26k80.h"
  1569                           SDFLC equ 0E70h ;# 
  1570                           # 5958 "C:\Program Files (x86)\Microchip\xc8\v1.12\include\pic18f26k80.h"
  1571                           RXFBCON0 equ 0E71h ;# 
  1572                           # 6041 "C:\Program Files (x86)\Microchip\xc8\v1.12\include\pic18f26k80.h"
  1573                           RXFBCON1 equ 0E72h ;# 
  1574                           # 6124 "C:\Program Files (x86)\Microchip\xc8\v1.12\include\pic18f26k80.h"
  1575                           RXFBCON2 equ 0E73h ;# 
  1576                           # 6207 "C:\Program Files (x86)\Microchip\xc8\v1.12\include\pic18f26k80.h"
  1577                           RXFBCON3 equ 0E74h ;# 
  1578                           # 6290 "C:\Program Files (x86)\Microchip\xc8\v1.12\include\pic18f26k80.h"
  1579                           RXFBCON4 equ 0E75h ;# 
  1580                           # 6373 "C:\Program Files (x86)\Microchip\xc8\v1.12\include\pic18f26k80.h"
  1581                           RXFBCON5 equ 0E76h ;# 
  1582                           # 6456 "C:\Program Files (x86)\Microchip\xc8\v1.12\include\pic18f26k80.h"
  1583                           RXFBCON6 equ 0E77h ;# 
  1584                           # 6539 "C:\Program Files (x86)\Microchip\xc8\v1.12\include\pic18f26k80.h"
  1585                           RXFBCON7 equ 0E78h ;# 
  1586                           # 6622 "C:\Program Files (x86)\Microchip\xc8\v1.12\include\pic18f26k80.h"
  1587                           MSEL0 equ 0E79h ;# 
  1588                           # 6709 "C:\Program Files (x86)\Microchip\xc8\v1.12\include\pic18f26k80.h"
  1589                           MSEL1 equ 0E7Ah ;# 
  1590                           # 6796 "C:\Program Files (x86)\Microchip\xc8\v1.12\include\pic18f26k80.h"
  1591                           MSEL2 equ 0E7Bh ;# 
  1592                           # 6883 "C:\Program Files (x86)\Microchip\xc8\v1.12\include\pic18f26k80.h"
  1593                           MSEL3 equ 0E7Ch ;# 
  1594                           # 6970 "C:\Program Files (x86)\Microchip\xc8\v1.12\include\pic18f26k80.h"
  1595                           BSEL0 equ 0E7Dh ;# 
  1596                           # 7020 "C:\Program Files (x86)\Microchip\xc8\v1.12\include\pic18f26k80.h"
  1597                           BIE0 equ 0E7Eh ;# 
  1598                           # 7098 "C:\Program Files (x86)\Microchip\xc8\v1.12\include\pic18f26k80.h"
  1599                           TXBIE equ 0E7Fh ;# 
  1600                           # 7157 "C:\Program Files (x86)\Microchip\xc8\v1.12\include\pic18f26k80.h"
  1601                           B0CON equ 0E80h ;# 
  1602                           # 7460 "C:\Program Files (x86)\Microchip\xc8\v1.12\include\pic18f26k80.h"
  1603                           B0SIDH equ 0E81h ;# 
  1604                           # 7600 "C:\Program Files (x86)\Microchip\xc8\v1.12\include\pic18f26k80.h"
  1605                           B0SIDL equ 0E82h ;# 
  1606                           # 7733 "C:\Program Files (x86)\Microchip\xc8\v1.12\include\pic18f26k80.h"
  1607                           B0EIDH equ 0E83h ;# 
  1608                           # 7873 "C:\Program Files (x86)\Microchip\xc8\v1.12\include\pic18f26k80.h"
  1609                           B0EIDL equ 0E84h ;# 
  1610                           # 8013 "C:\Program Files (x86)\Microchip\xc8\v1.12\include\pic18f26k80.h"
  1611                           B0DLC equ 0E85h ;# 
  1612                           # 8159 "C:\Program Files (x86)\Microchip\xc8\v1.12\include\pic18f26k80.h"
  1613                           B0D0 equ 0E86h ;# 
  1614                           # 8228 "C:\Program Files (x86)\Microchip\xc8\v1.12\include\pic18f26k80.h"
  1615                           B0D1 equ 0E87h ;# 
  1616                           # 8297 "C:\Program Files (x86)\Microchip\xc8\v1.12\include\pic18f26k80.h"
  1617                           B0D2 equ 0E88h ;# 
  1618                           # 8366 "C:\Program Files (x86)\Microchip\xc8\v1.12\include\pic18f26k80.h"
  1619                           B0D3 equ 0E89h ;# 
  1620  0000                     	__size_of_main	equ	__end_of_main-_main
  1621                           opt subtitle "HI-TECH Software Omniscient Code Generator (Lite mode) build 49521"
  1622  000682                     _main:
  1623                           opt subtitle "HI-TECH Software Omniscient Code Generator (Lite mode) build 49521"
  1624                           
  1625                           opt pagewidth 120
  1626  000682                     l1267:
  1627                           opt subtitle "HI-TECH Software Omniscient Code Generator (Lite mode) build 49521"
  1628  000682  6E23               	movwf	(??_main+0+0)&0ffh,c
  1629  000684  0E05               	movlw	low(05h)
  1630  000686  6E24               	movwf	((c:main@Delay)),c
  1631  000688  5023               	movf	(??_main+0+0)&0ffh,c,w
  1632                           opt subtitle "HI-TECH Software Omniscient Code Generator (Lite mode) build 49521"
  1633                           
  1634  00068A                     l1269:
  1635                           opt subtitle "HI-TECH Software Omniscient Code Generator (Lite mode) build 49521"
  1636  00068A  6892               	setf	((c:3986)),c	;volatile
  1637                           opt subtitle "HI-TECH Software Omniscient Code Generator (Lite mode) build 49521"
  1638                           
  1639  00068C                     l1271:
  1640                           opt subtitle "HI-TECH Software Omniscient Code Generator (Lite mode) build 49521"
  1641  00068C  6893               	setf	((c:3987)),c	;volatile
  1642                           opt subtitle "HI-TECH Software Omniscient Code Generator (Lite mode) build 49521"
  1643                           
  1644  00068E                     l1273:
  1645                           opt subtitle "HI-TECH Software Omniscient Code Generator (Lite mode) build 49521"
  1646  00068E  9A92               	bcf	((c:3986)),c,5	;volatile
  1647                           opt subtitle "HI-TECH Software Omniscient Code Generator (Lite mode) build 49521"
  1648                           
  1649  000690                     l1275:
  1650                           opt subtitle "HI-TECH Software Omniscient Code Generator (Lite mode) build 49521"
  1651  000690  9A89               	bcf	((c:3977)),c,5	;volatile
  1652                           opt subtitle "HI-TECH Software Omniscient Code Generator (Lite mode) build 49521"
  1653                           
  1654  000692                     l1277:
  1655                           opt subtitle "HI-TECH Software Omniscient Code Generator (Lite mode) build 49521"
  1656  000692  6894               	setf	((c:3988)),c	;volatile
  1657                           opt subtitle "HI-TECH Software Omniscient Code Generator (Lite mode) build 49521"
  1658                           
  1659  000694                     l1279:
  1660                           opt subtitle "HI-TECH Software Omniscient Code Generator (Lite mode) build 49521"
  1661  000694  9C94               	bcf	((c:3988)),c,6	;volatile
  1662                           opt subtitle "HI-TECH Software Omniscient Code Generator (Lite mode) build 49521"
  1663                           
  1664  000696                     l1281:
  1665                           opt subtitle "HI-TECH Software Omniscient Code Generator (Lite mode) build 49521"
  1666  000696  0E00               	movlw	low(0)
  1667  000698  6ED5               	movwf	((c:4053)),c	;volatile
  1668                           opt subtitle "HI-TECH Software Omniscient Code Generator (Lite mode) build 49521"
  1669                           
  1670  00069A                     l1283:
  1671                           opt subtitle "HI-TECH Software Omniscient Code Generator (Lite mode) build 49521"
  1672  00069A  50D5               	movf	((c:4053)),c,w	;volatile
  1673  00069C  0BF8               	andlw	not (((1<<3)-1)<<0)
  1674  00069E  0905               	iorlw	(05h & ((1<<3)-1))<<0
  1675  0006A0  6ED5               	movwf	((c:4053)),c	;volatile
  1676                           opt subtitle "HI-TECH Software Omniscient Code Generator (Lite mode) build 49521"
  1677                           
  1678  0006A2                     l1285:
  1679                           opt subtitle "HI-TECH Software Omniscient Code Generator (Lite mode) build 49521"
  1680  0006A2  9AF2               	bcf	((c:4082)),c,5	;volatile
  1681                           opt subtitle "HI-TECH Software Omniscient Code Generator (Lite mode) build 49521"
  1682                           
  1683  0006A4                     l1287:
  1684                           opt subtitle "HI-TECH Software Omniscient Code Generator (Lite mode) build 49521"
  1685  0006A4  94F2               	bcf	((c:4082)),c,2	;volatile
  1686                           opt subtitle "HI-TECH Software Omniscient Code Generator (Lite mode) build 49521"
  1687                           
  1688  0006A6                     l1289:
  1689                           opt subtitle "HI-TECH Software Omniscient Code Generator (Lite mode) build 49521"
  1690  0006A6  0EF4               	movlw	high(0F424h)
  1691  0006A8  6ED7               	movwf	((c:4054+1)),c	;volatile
  1692  0006AA  0E24               	movlw	low(0F424h)
  1693  0006AC  6ED6               	movwf	((c:4054)),c	;volatile
  1694                           opt subtitle "HI-TECH Software Omniscient Code Generator (Lite mode) build 49521"
  1695                           
  1696  0006AE                     l1291:
  1697                           opt subtitle "HI-TECH Software Omniscient Code Generator (Lite mode) build 49521"
  1698  0006AE  8ED5               	bsf	((c:4053)),c,7	;volatile
  1699                           opt subtitle "HI-TECH Software Omniscient Code Generator (Lite mode) build 49521"
  1700                           
  1701  0006B0                     l1293:
  1702                           opt subtitle "HI-TECH Software Omniscient Code Generator (Lite mode) build 49521"
  1703  0006B0  0E80               	movlw	low(080h)
  1704  0006B2  6E6F               	movwf	((c:3951)),c	;volatile
  1705                           opt subtitle "HI-TECH Software Omniscient Code Generator (Lite mode) build 49521"
  1706                           
  1707  0006B4  D001               	goto	l1295
  1708                           opt subtitle "HI-TECH Software Omniscient Code Generator (Lite mode) build 49521"
  1709  0006B6                     l135:
  1710  0006B6  D000               	goto	l1295
  1711                           opt subtitle "HI-TECH Software Omniscient Code Generator (Lite mode) build 49521"
  1712                           
  1713                           opt pagewidth 120
  1714                           
  1715  0006B8                     l134:
  1716                           opt subtitle "HI-TECH Software Omniscient Code Generator (Lite mode) build 49521"
  1717                           
  1718  0006B8                     l1295:
  1719  0006B8  506E               	movf	((c:3950)),c,w	;volatile
  1720  0006BA  0BE0               	andlw	low(0E0h)
  1721  0006BC  0A80               	xorlw	080h
  1722  0006BE  A4D8               	btfss	status,2
  1723  0006C0  D001               	goto	u471
  1724  0006C2  D001               	goto	u470
  1725  0006C4                     u471:
  1726  0006C4  D7F9               	goto	l1295
  1727  0006C6                     u470:
  1728  0006C6  D000               	goto	l1297
  1729                           opt subtitle "HI-TECH Software Omniscient Code Generator (Lite mode) build 49521"
  1730  0006C8                     l136:
  1731                           opt subtitle "HI-TECH Software Omniscient Code Generator (Lite mode) build 49521"
  1732                           
  1733  0006C8                     l1297:
  1734                           opt subtitle "HI-TECH Software Omniscient Code Generator (Lite mode) build 49521"
  1735                           
  1736  0006C8  0E90               	movlw	low(090h)
  1737  0006CA  6E72               	movwf	((c:3954)),c	;volatile
  1738                           opt subtitle "HI-TECH Software Omniscient Code Generator (Lite mode) build 49521"
  1739                           
  1740  0006CC                     l1299:
  1741                           opt subtitle "HI-TECH Software Omniscient Code Generator (Lite mode) build 49521"
  1742  0006CC  010E               	movlb	14	; () banked
  1743  0006CE  8143               		bsf	((3651))&0ffh, 0+0	;volatile
  1744  0006D0  010E               	movlb	14	; () banked
  1745  0006D2  8343               	bsf	((3651))&0ffh, 0+1	;volatile
  1746  0006D4  010E               	movlb	14	; () banked
  1747  0006D6  8543               	bsf	((3651))&0ffh, 0+2	;volatile
  1748  0006D8  010E               	movlb	14	; () banked
  1749  0006DA  9743               	bcf	((3651))&0ffh, 0+3	;volatile
  1750  0006DC  010E               	movlb	14	; () banked
  1751  0006DE  9943               	bcf	((3651))&0ffh, 0+4	;volatile
  1752  0006E0  010E               	movlb	14	; () banked
  1753  0006E2  9B43               	bcf	((3651))&0ffh, 0+5	;volatile
  1754                           opt subtitle "HI-TECH Software Omniscient Code Generator (Lite mode) build 49521"
  1755                           
  1756                           opt pagewidth 120
  1757  0006E4                     l1301:; BSR set to: 14
  1758                           opt subtitle "HI-TECH Software Omniscient Code Generator (Lite mode) build 49521"
  1759                           
  1760  0006E4  010E               	movlb	14	; () banked
  1761  0006E6  8744               		bsf	((3652))&0ffh, 3+0	;volatile
  1762  0006E8  010E               	movlb	14	; () banked
  1763  0006EA  8944               	bsf	((3652))&0ffh, 3+1	;volatile
  1764  0006EC  010E               	movlb	14	; () banked
  1765  0006EE  8B44               	bsf	((3652))&0ffh, 3+2	;volatile
  1766                           opt subtitle "HI-TECH Software Omniscient Code Generator (Lite mode) build 49521"
  1767                           
  1768                           opt pagewidth 120
  1769  0006F0  010E               	movlb	14	; () banked
  1770  0006F2  010E               	movlb	14	; () banked
  1771  0006F4  5144               	movf	((3652))&0ffh,w	;volatile
  1772  0006F6  0BF8               	andlw	not (((1<<3)-1)<<0)
  1773  0006F8  0904               	iorlw	(04h & ((1<<3)-1))<<0
  1774  0006FA  010E               	movlb	14	; () banked
  1775  0006FC  6F44               	movwf	((3652))&0ffh	;volatile
  1776                           opt subtitle "HI-TECH Software Omniscient Code Generator (Lite mode) build 49521"
  1777                           
  1778  0006FE  010E               	movlb	14	; () banked
  1779  000700  010E               	movlb	14	; () banked
  1780  000702  5145               	movf	((3653))&0ffh,w	;volatile
  1781  000704  0BF8               	andlw	not (((1<<3)-1)<<0)
  1782  000706  0905               	iorlw	(05h & ((1<<3)-1))<<0
  1783  000708  010E               	movlb	14	; () banked
  1784  00070A  6F45               	movwf	((3653))&0ffh	;volatile
  1785                           opt subtitle "HI-TECH Software Omniscient Code Generator (Lite mode) build 49521"
  1786                           
  1787  00070C                     l1303:; BSR set to: 14
  1788                           opt subtitle "HI-TECH Software Omniscient Code Generator (Lite mode) build 49521"
  1789                           
  1790  00070C  010E               	movlb	14	; () banked
  1791  00070E  010E               	movlb	14	; () banked
  1792  000710  8D44               	bsf	((3652))&0ffh,6	;volatile
  1793                           opt subtitle "HI-TECH Software Omniscient Code Generator (Lite mode) build 49521"
  1794                           
  1795  000712                     l1305:; BSR set to: 14
  1796                           opt subtitle "HI-TECH Software Omniscient Code Generator (Lite mode) build 49521"
  1797                           
  1798  000712  010E               	movlb	14	; () banked
  1799  000714  010E               	movlb	14	; () banked
  1800  000716  8F44               	bsf	((3652))&0ffh,7	;volatile
  1801                           opt subtitle "HI-TECH Software Omniscient Code Generator (Lite mode) build 49521"
  1802                           
  1803  000718  0E00               	movlw	low(0)
  1804  00071A  010E               	movlb	14	; () banked
  1805  00071C  010E               	movlb	14	; () banked
  1806  00071E  6F79               	movwf	((3705))&0ffh	;volatile
  1807                           opt subtitle "HI-TECH Software Omniscient Code Generator (Lite mode) build 49521"
  1808                           
  1809  000720  0E00               	movlw	low(0)
  1810  000722  010E               	movlb	14	; () banked
  1811  000724  010E               	movlb	14	; () banked
  1812  000726  6FF8               	movwf	((3832))&0ffh	;volatile
  1813                           opt subtitle "HI-TECH Software Omniscient Code Generator (Lite mode) build 49521"
  1814                           
  1815  000728  0E0B               	movlw	low(0Bh)
  1816  00072A  010E               	movlb	14	; () banked
  1817  00072C  010E               	movlb	14	; () banked
  1818  00072E  6FF9               	movwf	((3833))&0ffh	;volatile
  1819                           opt subtitle "HI-TECH Software Omniscient Code Generator (Lite mode) build 49521"
  1820                           
  1821  000730                     l1307:; BSR set to: 14
  1822                           opt subtitle "HI-TECH Software Omniscient Code Generator (Lite mode) build 49521"
  1823                           
  1824  000730  010E               	movlb	14	; () banked
  1825  000732  010E               	movlb	14	; () banked
  1826  000734  69FA               	setf	((3834))&0ffh	;volatile
  1827                           opt subtitle "HI-TECH Software Omniscient Code Generator (Lite mode) build 49521"
  1828                           
  1829  000736                     l1309:; BSR set to: 14
  1830                           opt subtitle "HI-TECH Software Omniscient Code Generator (Lite mode) build 49521"
  1831                           
  1832  000736  010E               	movlb	14	; () banked
  1833  000738  010E               	movlb	14	; () banked
  1834  00073A  69FB               	setf	((3835))&0ffh	;volatile
  1835                           opt subtitle "HI-TECH Software Omniscient Code Generator (Lite mode) build 49521"
  1836                           
  1837  00073C  0E00               	movlw	low(0)
  1838  00073E  010E               	movlb	14	; () banked
  1839  000740  010E               	movlb	14	; () banked
  1840  000742  6FE0               	movwf	((3808))&0ffh	;volatile
  1841                           opt subtitle "HI-TECH Software Omniscient Code Generator (Lite mode) build 49521"
  1842                           
  1843  000744  0E01               	movlw	low(01h)
  1844  000746  010E               	movlb	14	; () banked
  1845  000748  010E               	movlb	14	; () banked
  1846  00074A  6FE1               	movwf	((3809))&0ffh	;volatile
  1847                           opt subtitle "HI-TECH Software Omniscient Code Generator (Lite mode) build 49521"
  1848                           
  1849  00074C                     l1311:; BSR set to: 14
  1850                           opt subtitle "HI-TECH Software Omniscient Code Generator (Lite mode) build 49521"
  1851                           
  1852  00074C  010E               	movlb	14	; () banked
  1853  00074E  010E               	movlb	14	; () banked
  1854  000750  87E1               	bsf	((3809))&0ffh,3	;volatile
  1855                           opt subtitle "HI-TECH Software Omniscient Code Generator (Lite mode) build 49521"
  1856                           
  1857  000752  0E40               	movlw	low(040h)
  1858  000754  010E               	movlb	14	; () banked
  1859  000756  010E               	movlb	14	; () banked
  1860  000758  6FE2               	movwf	((3810))&0ffh	;volatile
  1861                           opt subtitle "HI-TECH Software Omniscient Code Generator (Lite mode) build 49521"
  1862                           
  1863  00075A  0E00               	movlw	low(0)
  1864  00075C  010E               	movlb	14	; () banked
  1865  00075E  010E               	movlb	14	; () banked
  1866  000760  6FE3               	movwf	((3811))&0ffh	;volatile
  1867                           opt subtitle "HI-TECH Software Omniscient Code Generator (Lite mode) build 49521"
  1868                           
  1869  000762  0EF0               	movlw	low(0F0h)
  1870  000764  010E               	movlb	14	; () banked
  1871  000766  010E               	movlb	14	; () banked
  1872  000768  6F71               	movwf	((3697))&0ffh	;volatile
  1873                           opt subtitle "HI-TECH Software Omniscient Code Generator (Lite mode) build 49521"
  1874                           
  1875  00076A                     l1313:; BSR set to: 14
  1876                           opt subtitle "HI-TECH Software Omniscient Code Generator (Lite mode) build 49521"
  1877                           
  1878  00076A  010E               	movlb	14	; () banked
  1879  00076C  010E               	movlb	14	; () banked
  1880  00076E  6972               	setf	((3698))&0ffh	;volatile
  1881                           opt subtitle "HI-TECH Software Omniscient Code Generator (Lite mode) build 49521"
  1882                           
  1883  000770                     l1315:; BSR set to: 14
  1884                           opt subtitle "HI-TECH Software Omniscient Code Generator (Lite mode) build 49521"
  1885                           
  1886  000770  010E               	movlb	14	; () banked
  1887  000772  010E               	movlb	14	; () banked
  1888  000774  6973               	setf	((3699))&0ffh	;volatile
  1889                           opt subtitle "HI-TECH Software Omniscient Code Generator (Lite mode) build 49521"
  1890                           
  1891  000776                     l1317:; BSR set to: 14
  1892                           opt subtitle "HI-TECH Software Omniscient Code Generator (Lite mode) build 49521"
  1893                           
  1894  000776  010E               	movlb	14	; () banked
  1895  000778  010E               	movlb	14	; () banked
  1896  00077A  6974               	setf	((3700))&0ffh	;volatile
  1897                           opt subtitle "HI-TECH Software Omniscient Code Generator (Lite mode) build 49521"
  1898                           
  1899  00077C                     l1319:; BSR set to: 14
  1900                           opt subtitle "HI-TECH Software Omniscient Code Generator (Lite mode) build 49521"
  1901                           
  1902  00077C  010E               	movlb	14	; () banked
  1903  00077E  010E               	movlb	14	; () banked
  1904  000780  6975               	setf	((3701))&0ffh	;volatile
  1905                           opt subtitle "HI-TECH Software Omniscient Code Generator (Lite mode) build 49521"
  1906                           
  1907  000782                     l1321:; BSR set to: 14
  1908                           opt subtitle "HI-TECH Software Omniscient Code Generator (Lite mode) build 49521"
  1909                           
  1910  000782  010E               	movlb	14	; () banked
  1911  000784  010E               	movlb	14	; () banked
  1912  000786  6976               	setf	((3702))&0ffh	;volatile
  1913                           opt subtitle "HI-TECH Software Omniscient Code Generator (Lite mode) build 49521"
  1914                           
  1915  000788                     l1323:; BSR set to: 14
  1916                           opt subtitle "HI-TECH Software Omniscient Code Generator (Lite mode) build 49521"
  1917                           
  1918  000788  010E               	movlb	14	; () banked
  1919  00078A  010E               	movlb	14	; () banked
  1920  00078C  6977               	setf	((3703))&0ffh	;volatile
  1921                           opt subtitle "HI-TECH Software Omniscient Code Generator (Lite mode) build 49521"
  1922                           
  1923  00078E                     l1325:; BSR set to: 14
  1924                           opt subtitle "HI-TECH Software Omniscient Code Generator (Lite mode) build 49521"
  1925                           
  1926  00078E  010E               	movlb	14	; () banked
  1927  000790  010E               	movlb	14	; () banked
  1928  000792  6978               	setf	((3704))&0ffh	;volatile
  1929                           opt subtitle "HI-TECH Software Omniscient Code Generator (Lite mode) build 49521"
  1930                           
  1931  000794  0E01               	movlw	low(01h)
  1932  000796  010E               	movlb	14	; () banked
  1933  000798  010E               	movlb	14	; () banked
  1934  00079A  6F46               	movwf	((3654))&0ffh	;volatile
  1935                           opt subtitle "HI-TECH Software Omniscient Code Generator (Lite mode) build 49521"
  1936                           
  1937  00079C  0E00               	movlw	low(0)
  1938  00079E  010E               	movlb	14	; () banked
  1939  0007A0  010E               	movlb	14	; () banked
  1940  0007A2  6F47               	movwf	((3655))&0ffh	;volatile
  1941                           opt subtitle "HI-TECH Software Omniscient Code Generator (Lite mode) build 49521"
  1942                           
  1943  0007A4  0E00               	movlw	low(0)
  1944  0007A6  6E6F               	movwf	((c:3951)),c	;volatile
  1945                           opt subtitle "HI-TECH Software Omniscient Code Generator (Lite mode) build 49521"
  1946                           
  1947  0007A8  D001               	goto	l1327
  1948                           opt subtitle "HI-TECH Software Omniscient Code Generator (Lite mode) build 49521"
  1949  0007AA                     l138:; BSR set to: 14
  1950                           opt subtitle "HI-TECH Software Omniscient Code Generator (Lite mode) build 49521"
  1951  0007AA  D000               	goto	l1327
  1952                           opt subtitle "HI-TECH Software Omniscient Code Generator (Lite mode) build 49521"
  1953                           
  1954                           opt pagewidth 120
  1955                           
  1956  0007AC                     l137:; BSR set to: 14
  1957                           opt subtitle "HI-TECH Software Omniscient Code Generator (Lite mode) build 49521"
  1958                           
  1959                           opt pagewidth 120
  1960  0007AC                     l1327:
  1961  0007AC  506E               	movf	((c:3950)),c,w	;volatile
  1962  0007AE  0BE0               	andlw	low(0E0h)
  1963  0007B0  A4D8               	btfss	status,2
  1964  0007B2  D001               	goto	u481
  1965  0007B4  D001               	goto	u480
  1966  0007B6                     u481:
  1967  0007B6  D7FA               	goto	l1327
  1968  0007B8                     u480:
  1969  0007B8  D000               	goto	l1329
  1970                           opt subtitle "HI-TECH Software Omniscient Code Generator (Lite mode) build 49521"
  1971  0007BA                     l139:
  1972                           opt subtitle "HI-TECH Software Omniscient Code Generator (Lite mode) build 49521"
  1973                           
  1974  0007BA                     l1329:
  1975                           opt subtitle "HI-TECH Software Omniscient Code Generator (Lite mode) build 49521"
  1976                           
  1977  0007BA  0E00               	movlw	low(0C00h)
  1978  0007BC  6E25               	movwf	((c:_SourceAddr)),c
  1979  0007BE  0E0C               	movlw	high(0C00h)
  1980  0007C0  6E26               	movwf	((c:_SourceAddr+1)),c
  1981  0007C2  0E00               	movlw	low highword(0C00h)
  1982  0007C4  6E27               	movwf	((c:_SourceAddr+2)),c
  1983  0007C6  0E00               	movlw	high highword(0C00h)
  1984  0007C8  6E28               	movwf	((c:_SourceAddr+3)),c
  1985  0007CA  D000               	goto	l1331
  1986                           opt subtitle "HI-TECH Software Omniscient Code Generator (Lite mode) build 49521"
  1987                           
  1988                           opt pagewidth 120
  1989  0007CC                     l140:
  1990                           opt subtitle "HI-TECH Software Omniscient Code Generator (Lite mode) build 49521"
  1991                           
  1992  0007CC                     l1331:
  1993                           opt subtitle "HI-TECH Software Omniscient Code Generator (Lite mode) build 49521"
  1994                           
  1995  0007CC  0E00               	movlw	high((c:_canRxMessage))
  1996  0007CE  6E1D               	movwf	((c:?_OdbierzRamke+1)),c
  1997  0007D0  0E2B               	movlw	low((c:_canRxMessage))
  1998  0007D2  6E1C               	movwf	((c:?_OdbierzRamke)),c
  1999  0007D4  EC10  F000         	call	_OdbierzRamke	;wreg free
  2000                           opt subtitle "HI-TECH Software Omniscient Code Generator (Lite mode) build 49521"
  2001                           
  2002  0007D8                     l1333:
  2003                           opt subtitle "HI-TECH Software Omniscient Code Generator (Lite mode) build 49521"
  2004                           
  2005  0007D8  A4F2               	btfss	((c:4082)),c,2	;volatile
  2006  0007DA  D001               	goto	u491
  2007  0007DC  D001               	goto	u490
  2008  0007DE                     u491:
  2009  0007DE  D7F6               	goto	l1331
  2010  0007E0                     u490:
  2011                           opt subtitle "HI-TECH Software Omniscient Code Generator (Lite mode) build 49521"
  2012                           
  2013  0007E0                     l1335:
  2014                           opt subtitle "HI-TECH Software Omniscient Code Generator (Lite mode) build 49521"
  2015                           
  2016  0007E0  94F2               	bcf	c:(32658/8),(32658)&7	;volatile
  2017                           opt subtitle "HI-TECH Software Omniscient Code Generator (Lite mode) build 49521"
  2018                           
  2019  0007E2  0004               clrwdt ;# 
  2020                           opt subtitle "HI-TECH Software Omniscient Code Generator (Lite mode) build 49521"
  2021                           
  2022                           opt pagewidth 120
  2023  0007E4                     l1337:
  2024                           opt subtitle "HI-TECH Software Omniscient Code Generator (Lite mode) build 49521"
  2025  0007E4  5024               	movf	((c:main@Delay)),c,w
  2026  0007E6  2A2A               	incf	((c:_counter)),c
  2027  0007E8  5C2A               	subwf	((c:_counter))&0ffh,w
  2028  0007EA  A0D8               	btfss	status,0
  2029  0007EC  D001               	goto	u501
  2030  0007EE  D001               	goto	u500
  2031  0007F0                     u501:
  2032  0007F0  D7ED               	goto	l1331
  2033  0007F2                     u500:
  2034                           opt subtitle "HI-TECH Software Omniscient Code Generator (Lite mode) build 49521"
  2035                           
  2036  0007F2                     l1339:
  2037                           opt subtitle "HI-TECH Software Omniscient Code Generator (Lite mode) build 49521"
  2038                           
  2039  0007F2  ECF2  F001         	call	_ResetDevice	;wreg free
  2040  0007F6  D7EA               	goto	l1331
  2041                           opt subtitle "HI-TECH Software Omniscient Code Generator (Lite mode) build 49521"
  2042                           
  2043  0007F8                     l142:
  2044  0007F8  D7E9               	goto	l1331
  2045                           opt subtitle "HI-TECH Software Omniscient Code Generator (Lite mode) build 49521"
  2046                           
  2047  0007FA                     l141:
  2048                           opt subtitle "HI-TECH Software Omniscient Code Generator (Lite mode) build 49521"
  2049                           
  2050                           opt pagewidth 120
  2051                           
  2052  0007FA  D7E8               	goto	l1331
  2053                           opt subtitle "HI-TECH Software Omniscient Code Generator (Lite mode) build 49521"
  2054  0007FC                     l143:
  2055                           opt subtitle "HI-TECH Software Omniscient Code Generator (Lite mode) build 49521"
  2056                           
  2057  0007FC                     l144:
  2058                           opt subtitle "HI-TECH Software Omniscient Code Generator (Lite mode) build 49521"
  2059  0007FC  EF0E  F000         	goto	start
  2060                           opt subtitle "HI-TECH Software Omniscient Code Generator (Lite mode) build 49521"
  2061                           
  2062  000800                     	__end_of_main:
  2063                           opt subtitle "HI-TECH Software Omniscient Code Generator (Lite mode) build 49521"
  2064                           
  2065                           opt pagewidth 120
  2066                           
  2067                           	opt lm
  2068                           
  2069                           	processor	18F26K80
  2070                           porta	equ	0F80h
  2071                           portb	equ	0F81h
  2072                           portc	equ	0F82h
  2073                           portd	equ	0F83h
  2074                           porte	equ	0F84h
  2075                           lata	equ	0F89h
  2076                           latb	equ	0F8Ah
  2077                           latc	equ	0F8Bh
  2078                           latd	equ	0F8Ch
  2079                           late	equ	0F8Dh
  2080                           trisa	equ	0F92h
  2081                           trisb	equ	0F93h
  2082                           trisc	equ	0F94h
  2083                           trisd	equ	0F95h
  2084                           trise	equ	0F96h
  2085                           pie1	equ	0F9Dh
  2086                           pir1	equ	0F9Eh
  2087                           ipr1	equ	0F9Fh
  2088                           pie2	equ	0FA0h
  2089                           pir2	equ	0FA1h
  2090                           ipr2	equ	0FA2h
  2091                           t3con	equ	0FB1h
  2092                           tmr3l	equ	0FB2h
  2093                           tmr3h	equ	0FB3h
  2094                           ccp1con	equ	0FBDh
  2095                           ccpr1l	equ	0FBEh
  2096                           ccpr1h	equ	0FBFh
  2097                           adcon1	equ	0FC1h
  2098                           adcon0	equ	0FC2h
  2099                           adresl	equ	0FC3h
  2100                           adresh	equ	0FC4h
  2101                           sspcon2	equ	0FC5h
  2102  000020                     __ptext1:
  2103                           opt subtitle "HI-TECH Software Omniscient Code Generator (Lite mode) build 49521"
  2104                           
  2105                           opt pagewidth 120
  2106                           
  2107  0000                     	__size_of_OdbierzRamke	equ	__end_of_OdbierzRamke-_OdbierzRamke
  2108                           opt subtitle "HI-TECH Software Omniscient Code Generator (Lite mode) build 49521"
  2109  000020                     _OdbierzRamke:
  2110                           opt subtitle "HI-TECH Software Omniscient Code Generator (Lite mode) build 49521"
  2111                           
  2112                           opt pagewidth 120
  2113  000020                     l1205:
  2114                           opt subtitle "HI-TECH Software Omniscient Code Generator (Lite mode) build 49521"
  2115                           
  2116                           opt pagewidth 120
  2117  000020  D037               	goto	l1225
  2118                           opt subtitle "HI-TECH Software Omniscient Code Generator (Lite mode) build 49521"
  2119                           
  2120                           opt pagewidth 120
  2121                           
  2122  000022                     l115:
  2123                           opt subtitle "HI-TECH Software Omniscient Code Generator (Lite mode) build 49521"
  2124                           
  2125  000022                     l1207:
  2126                           opt subtitle "HI-TECH Software Omniscient Code Generator (Lite mode) build 49521"
  2127  000022  0E0F               	movlw	high((c:3936))	;volatile
  2128  000024  6E22               	movwf	((c:OdbierzRamke@pointerU8+1)),c
  2129  000026  0E60               	movlw	low((c:3936))	;volatile
  2130  000028  6E21               	movwf	((c:OdbierzRamke@pointerU8)),c
  2131                           opt subtitle "HI-TECH Software Omniscient Code Generator (Lite mode) build 49521"
  2132                           
  2133  00002A  D055               	goto	l1227
  2134                           opt subtitle "HI-TECH Software Omniscient Code Generator (Lite mode) build 49521"
  2135                           
  2136                           opt pagewidth 120
  2137  00002C                     l117:
  2138                           opt subtitle "HI-TECH Software Omniscient Code Generator (Lite mode) build 49521"
  2139                           
  2140  00002C                     l1209:
  2141                           opt subtitle "HI-TECH Software Omniscient Code Generator (Lite mode) build 49521"
  2142  00002C  010F               	movlb	15	; () banked
  2143  00002E  0E0F               	movlw	high(3888)	;volatile
  2144  000030  6E22               	movwf	((c:OdbierzRamke@pointerU8+1)),c
  2145  000032  010F               	movlb	15	; () banked
  2146  000034  0E30               	movlw	low(3888)	;volatile
  2147  000036  6E21               	movwf	((c:OdbierzRamke@pointerU8)),c
  2148                           opt subtitle "HI-TECH Software Omniscient Code Generator (Lite mode) build 49521"
  2149                           
  2150  000038  D04E               	goto	l1227
  2151                           opt subtitle "HI-TECH Software Omniscient Code Generator (Lite mode) build 49521"
  2152                           
  2153                           opt pagewidth 120
  2154  00003A                     l118:; BSR set to: 15
  2155                           opt subtitle "HI-TECH Software Omniscient Code Generator (Lite mode) build 49521"
  2156                           
  2157                           opt pagewidth 120
  2158  00003A                     l1211:
  2159                           opt subtitle "HI-TECH Software Omniscient Code Generator (Lite mode) build 49521"
  2160  00003A  010E               	movlb	14	; () banked
  2161  00003C  0E0E               	movlw	high(3712)	;volatile
  2162  00003E  6E22               	movwf	((c:OdbierzRamke@pointerU8+1)),c
  2163  000040  010E               	movlb	14	; () banked
  2164  000042  0E80               	movlw	low(3712)	;volatile
  2165  000044  6E21               	movwf	((c:OdbierzRamke@pointerU8)),c
  2166                           opt subtitle "HI-TECH Software Omniscient Code Generator (Lite mode) build 49521"
  2167                           
  2168  000046  D047               	goto	l1227
  2169                           opt subtitle "HI-TECH Software Omniscient Code Generator (Lite mode) build 49521"
  2170                           
  2171                           opt pagewidth 120
  2172  000048                     l119:; BSR set to: 14
  2173                           opt subtitle "HI-TECH Software Omniscient Code Generator (Lite mode) build 49521"
  2174                           
  2175                           opt pagewidth 120
  2176  000048                     l1213:
  2177                           opt subtitle "HI-TECH Software Omniscient Code Generator (Lite mode) build 49521"
  2178  000048  010E               	movlb	14	; () banked
  2179  00004A  0E0E               	movlw	high(3728)	;volatile
  2180  00004C  6E22               	movwf	((c:OdbierzRamke@pointerU8+1)),c
  2181  00004E  010E               	movlb	14	; () banked
  2182  000050  0E90               	movlw	low(3728)	;volatile
  2183  000052  6E21               	movwf	((c:OdbierzRamke@pointerU8)),c
  2184                           opt subtitle "HI-TECH Software Omniscient Code Generator (Lite mode) build 49521"
  2185                           
  2186  000054  D040               	goto	l1227
  2187                           opt subtitle "HI-TECH Software Omniscient Code Generator (Lite mode) build 49521"
  2188                           
  2189                           opt pagewidth 120
  2190  000056                     l120:; BSR set to: 14
  2191                           opt subtitle "HI-TECH Software Omniscient Code Generator (Lite mode) build 49521"
  2192                           
  2193                           opt pagewidth 120
  2194  000056                     l1215:
  2195                           opt subtitle "HI-TECH Software Omniscient Code Generator (Lite mode) build 49521"
  2196  000056  010E               	movlb	14	; () banked
  2197  000058  0E0E               	movlw	high(3744)	;volatile
  2198  00005A  6E22               	movwf	((c:OdbierzRamke@pointerU8+1)),c
  2199  00005C  010E               	movlb	14	; () banked
  2200  00005E  0EA0               	movlw	low(3744)	;volatile
  2201  000060  6E21               	movwf	((c:OdbierzRamke@pointerU8)),c
  2202                           opt subtitle "HI-TECH Software Omniscient Code Generator (Lite mode) build 49521"
  2203                           
  2204  000062  D039               	goto	l1227
  2205                           opt subtitle "HI-TECH Software Omniscient Code Generator (Lite mode) build 49521"
  2206                           
  2207                           opt pagewidth 120
  2208  000064                     l121:; BSR set to: 14
  2209                           opt subtitle "HI-TECH Software Omniscient Code Generator (Lite mode) build 49521"
  2210                           
  2211                           opt pagewidth 120
  2212  000064                     l1217:
  2213                           opt subtitle "HI-TECH Software Omniscient Code Generator (Lite mode) build 49521"
  2214  000064  010E               	movlb	14	; () banked
  2215  000066  0E0E               	movlw	high(3760)	;volatile
  2216  000068  6E22               	movwf	((c:OdbierzRamke@pointerU8+1)),c
  2217  00006A  010E               	movlb	14	; () banked
  2218  00006C  0EB0               	movlw	low(3760)	;volatile
  2219  00006E  6E21               	movwf	((c:OdbierzRamke@pointerU8)),c
  2220                           opt subtitle "HI-TECH Software Omniscient Code Generator (Lite mode) build 49521"
  2221                           
  2222  000070  D032               	goto	l1227
  2223                           opt subtitle "HI-TECH Software Omniscient Code Generator (Lite mode) build 49521"
  2224                           
  2225                           opt pagewidth 120
  2226  000072                     l122:; BSR set to: 14
  2227                           opt subtitle "HI-TECH Software Omniscient Code Generator (Lite mode) build 49521"
  2228                           
  2229                           opt pagewidth 120
  2230  000072                     l1219:
  2231                           opt subtitle "HI-TECH Software Omniscient Code Generator (Lite mode) build 49521"
  2232  000072  010E               	movlb	14	; () banked
  2233  000074  0E0E               	movlw	high(3776)	;volatile
  2234  000076  6E22               	movwf	((c:OdbierzRamke@pointerU8+1)),c
  2235  000078  010E               	movlb	14	; () banked
  2236  00007A  0EC0               	movlw	low(3776)	;volatile
  2237  00007C  6E21               	movwf	((c:OdbierzRamke@pointerU8)),c
  2238                           opt subtitle "HI-TECH Software Omniscient Code Generator (Lite mode) build 49521"
  2239                           
  2240  00007E  D02B               	goto	l1227
  2241                           opt subtitle "HI-TECH Software Omniscient Code Generator (Lite mode) build 49521"
  2242                           
  2243                           opt pagewidth 120
  2244  000080                     l123:; BSR set to: 14
  2245                           opt subtitle "HI-TECH Software Omniscient Code Generator (Lite mode) build 49521"
  2246                           
  2247                           opt pagewidth 120
  2248  000080                     l1221:
  2249                           opt subtitle "HI-TECH Software Omniscient Code Generator (Lite mode) build 49521"
  2250  000080  010E               	movlb	14	; () banked
  2251  000082  0E0E               	movlw	high(3792)	;volatile
  2252  000084  6E22               	movwf	((c:OdbierzRamke@pointerU8+1)),c
  2253  000086  010E               	movlb	14	; () banked
  2254  000088  0ED0               	movlw	low(3792)	;volatile
  2255  00008A  6E21               	movwf	((c:OdbierzRamke@pointerU8)),c
  2256                           opt subtitle "HI-TECH Software Omniscient Code Generator (Lite mode) build 49521"
  2257                           
  2258  00008C  D024               	goto	l1227
  2259                           opt subtitle "HI-TECH Software Omniscient Code Generator (Lite mode) build 49521"
  2260                           
  2261  00008E                     l1223:; BSR set to: 14
  2262                           opt subtitle "HI-TECH Software Omniscient Code Generator (Lite mode) build 49521"
  2263                           
  2264  00008E  D023               	goto	l1227
  2265                           opt subtitle "HI-TECH Software Omniscient Code Generator (Lite mode) build 49521"
  2266                           
  2267  000090                     l114:; BSR set to: 14
  2268                           opt subtitle "HI-TECH Software Omniscient Code Generator (Lite mode) build 49521"
  2269                           
  2270  000090                     l1225:
  2271  000090  506F               	movf	((c:3951)),c,w	;volatile
  2272  000092  0B0F               	andlw	low(0Fh)
  2273  000094  6E1E               	movwf	(??_OdbierzRamke+0+0)&0ffh,c
  2274  000096  6A1F               	clrf	(??_OdbierzRamke+0+0+1)&0ffh,c
  2275                           opt subtitle "HI-TECH Software Omniscient Code Generator (Lite mode) build 49521"
  2276                           
  2277                           opt pagewidth 120
  2278                           
  2279                           	opt lm
  2280                           
  2281                           	processor	18F26K80
  2282                           porta	equ	0F80h
  2283                           portb	equ	0F81h
  2284  000098  501F               	movf ??_OdbierzRamke+0+1,c,w
  2285  00009A  0A00               	xorlw	0^0	; case 0
  2286  00009C  B4D8               	skipnz
  2287  00009E  D001               	goto	l1361
  2288  0000A0  D01A               	goto	l1227
  2289                           opt subtitle "HI-TECH Software Omniscient Code Generator (Lite mode) build 49521"
  2290  0000A2                     l1361:
  2291                           opt subtitle "HI-TECH Software Omniscient Code Generator (Lite mode) build 49521"
  2292                           
  2293                           opt pagewidth 120
  2294                           
  2295                           	opt lm
  2296                           
  2297                           	processor	18F26K80
  2298  0000A2  501E               	movf ??_OdbierzRamke+0+0,c,w
  2299  0000A4  0A00               	xorlw	0^0	; case 0
  2300  0000A6  B4D8               	skipnz
  2301  0000A8  D7BC               	goto	l1207
  2302  0000AA  0A01               	xorlw	1^0	; case 1
  2303  0000AC  B4D8               	skipnz
  2304  0000AE  D7BE               	goto	l1209
  2305  0000B0  0A03               	xorlw	2^1	; case 2
  2306  0000B2  B4D8               	skipnz
  2307  0000B4  D7C2               	goto	l1211
  2308  0000B6  0A01               	xorlw	3^2	; case 3
  2309  0000B8  B4D8               	skipnz
  2310  0000BA  D7C6               	goto	l1213
  2311  0000BC  0A07               	xorlw	4^3	; case 4
  2312  0000BE  B4D8               	skipnz
  2313  0000C0  D7CA               	goto	l1215
  2314  0000C2  0A01               	xorlw	5^4	; case 5
  2315  0000C4  B4D8               	skipnz
  2316  0000C6  D7CE               	goto	l1217
  2317  0000C8  0A03               	xorlw	6^5	; case 6
  2318  0000CA  B4D8               	skipnz
  2319  0000CC  D7D2               	goto	l1219
  2320  0000CE  0A01               	xorlw	7^6	; case 7
  2321  0000D0  B4D8               	skipnz
  2322  0000D2  D7D6               	goto	l1221
  2323  0000D4  D000               	goto	l1227
  2324                           opt subtitle "HI-TECH Software Omniscient Code Generator (Lite mode) build 49521"
  2325                           
  2326                           opt pagewidth 120
  2327  0000D6                     l116:
  2328                           opt subtitle "HI-TECH Software Omniscient Code Generator (Lite mode) build 49521"
  2329                           
  2330  0000D6                     l1227:
  2331                           opt subtitle "HI-TECH Software Omniscient Code Generator (Lite mode) build 49521"
  2332  0000D6  C021  FFD9         	movff	(c:OdbierzRamke@pointerU8),fsr2l
  2333  0000DA  C022  FFDA         	movff	(c:OdbierzRamke@pointerU8+1),fsr2h
  2334  0000DE  50DF               	movf	indf2,w
  2335  0000E0  6E1E               	movwf	(??_OdbierzRamke+0+0)&0ffh,c
  2336                           opt subtitle "HI-TECH Software Omniscient Code Generator (Lite mode) build 49521"
  2337  0000E2  AE1E               	btfss	((??_OdbierzRamke+0+0)),c,(7)&7
  2338  0000E4  D001               	goto	u421
  2339  0000E6  D001               	goto	u420
  2340  0000E8                     u421:
  2341  0000E8  D0D2               	goto	l128
  2342  0000EA                     u420:
  2343                           opt subtitle "HI-TECH Software Omniscient Code Generator (Lite mode) build 49521"
  2344                           
  2345  0000EA                     l1229:
  2346                           opt subtitle "HI-TECH Software Omniscient Code Generator (Lite mode) build 49521"
  2347                           
  2348  0000EA  EE20 F003          	lfsr	2,03h
  2349  0000EE  501C               	movf	((c:OdbierzRamke@message)),c,w
  2350  0000F0  26D9               	addwf	fsr2l
  2351  0000F2  501D               	movf	((c:OdbierzRamke@message+1)),c,w
  2352  0000F4  22DA               	addwfc	fsr2h
  2353  0000F6  C021  FFE1         	movff	(c:OdbierzRamke@pointerU8),fsr1l
  2354  0000FA  C022  FFE2         	movff	(c:OdbierzRamke@pointerU8+1),fsr1h
  2355  0000FE  50E7               	movf	indf1,w
  2356  000100  0B1F               	andlw	low(01Fh)
  2357  000102  6EDF               	movwf	indf2
  2358                           opt subtitle "HI-TECH Software Omniscient Code Generator (Lite mode) build 49521"
  2359                           
  2360                           opt pagewidth 120
  2361  000104  EE20 F004          	lfsr	2,04h
  2362  000108  5021               	movf	((c:OdbierzRamke@pointerU8)),c,w
  2363  00010A  26D9               	addwf	fsr2l
  2364  00010C  5022               	movf	((c:OdbierzRamke@pointerU8+1)),c,w
  2365  00010E  22DA               	addwfc	fsr2h
  2366  000110  EE10 F004          	lfsr	1,04h
  2367  000114  501C               	movf	((c:OdbierzRamke@message)),c,w
  2368  000116  26E1               	addwf	fsr1l
  2369  000118  501D               	movf	((c:OdbierzRamke@message+1)),c,w
  2370  00011A  22E2               	addwfc	fsr1h
  2371  00011C  CFDF FFE7          	movff	indf2,indf1
  2372                           opt subtitle "HI-TECH Software Omniscient Code Generator (Lite mode) build 49521"
  2373                           
  2374  000120  EE20 F003          	lfsr	2,03h
  2375  000124  5021               	movf	((c:OdbierzRamke@pointerU8)),c,w
  2376  000126  26D9               	addwf	fsr2l
  2377  000128  5022               	movf	((c:OdbierzRamke@pointerU8+1)),c,w
  2378  00012A  22DA               	addwfc	fsr2h
  2379  00012C  EE10 F005          	lfsr	1,05h
  2380  000130  501C               	movf	((c:OdbierzRamke@message)),c,w
  2381  000132  26E1               	addwf	fsr1l
  2382  000134  501D               	movf	((c:OdbierzRamke@message+1)),c,w
  2383  000136  22E2               	addwfc	fsr1h
  2384  000138  CFDF FFE7          	movff	indf2,indf1
  2385                           opt subtitle "HI-TECH Software Omniscient Code Generator (Lite mode) build 49521"
  2386                           
  2387  00013C                     l1231:
  2388                           opt subtitle "HI-TECH Software Omniscient Code Generator (Lite mode) build 49521"
  2389  00013C  EE20 F006          	lfsr	2,06h
  2390  000140  501C               	movf	((c:OdbierzRamke@message)),c,w
  2391  000142  26D9               	addwf	fsr2l
  2392  000144  501D               	movf	((c:OdbierzRamke@message+1)),c,w
  2393  000146  22DA               	addwfc	fsr2h
  2394  000148  EE10 F002          	lfsr	1,02h
  2395  00014C  5021               	movf	((c:OdbierzRamke@pointerU8)),c,w
  2396  00014E  26E1               	addwf	fsr1l
  2397  000150  5022               	movf	((c:OdbierzRamke@pointerU8+1)),c,w
  2398  000152  22E2               	addwfc	fsr1h
  2399  000154  50E7               	movf	indf1,w
  2400  000156  6E1E               	movwf	(??_OdbierzRamke+0+0)&0ffh,c
  2401  000158  0E03               	movlw	03h
  2402  00015A  161E               	andwf	((??_OdbierzRamke+0+0)),c
  2403  00015C  EE10 F002          	lfsr	1,02h
  2404  000160  5021               	movf	((c:OdbierzRamke@pointerU8)),c,w
  2405  000162  26E1               	addwf	fsr1l
  2406  000164  5022               	movf	((c:OdbierzRamke@pointerU8+1)),c,w
  2407  000166  22E2               	addwfc	fsr1h
  2408  000168  50E7               	movf	indf1,w
  2409  00016A  6E1F               	movwf	(??_OdbierzRamke+1+0)&0ffh,c
  2410  00016C  501F               	movf	((??_OdbierzRamke+1+0)),c,w
  2411  00016E  6E01               	movwf	((c:?___awdiv)),c
  2412  000170  6A02               	clrf	((c:?___awdiv+1)),c
  2413  000172  0E00               	movlw	high(08h)
  2414  000174  6E04               	movwf	(1+((c:?___awdiv)+02h)),c
  2415  000176  0E08               	movlw	low(08h)
  2416  000178  6E03               	movwf	(0+((c:?___awdiv)+02h)),c
  2417  00017A  EC6F  F002         	call	___awdiv	;wreg free
  2418  00017E  5001               	movf	(0+?___awdiv),c,w
  2419  000180  101E               	iorwf	((??_OdbierzRamke+0+0)),c,w
  2420  000182  6EDF               	movwf	indf2
  2421                           opt subtitle "HI-TECH Software Omniscient Code Generator (Lite mode) build 49521"
  2422                           
  2423                           opt pagewidth 120
  2424  000184                     l1233:
  2425                           opt subtitle "HI-TECH Software Omniscient Code Generator (Lite mode) build 49521"
  2426  000184  EE20 F001          	lfsr	2,01h
  2427  000188  5021               	movf	((c:OdbierzRamke@pointerU8)),c,w
  2428  00018A  26D9               	addwf	fsr2l
  2429  00018C  5022               	movf	((c:OdbierzRamke@pointerU8+1)),c,w
  2430  00018E  22DA               	addwfc	fsr2h
  2431  000190  50DF               	movf	indf2,w
  2432  000192  6E1E               	movwf	(??_OdbierzRamke+0+0)&0ffh,c
  2433  000194  6A1F               	clrf	(??_OdbierzRamke+0+0+1)&0ffh,c
  2434                           opt subtitle "HI-TECH Software Omniscient Code Generator (Lite mode) build 49521"
  2435  000196  0E05               	movlw	05h
  2436  000198                     u435:
  2437  000198  90D8               	bcf	status,0
  2438  00019A  361E               	rlcf	(??_OdbierzRamke+0+0),c
  2439  00019C  361F               	rlcf	(??_OdbierzRamke+0+1),c
  2440  00019E  2EE8               	decfsz	wreg
  2441  0001A0  D7FB               	goto	u435
  2442  0001A2  EE20 F006          	lfsr	2,06h
  2443  0001A6  501C               	movf	((c:OdbierzRamke@message)),c,w
  2444  0001A8  26D9               	addwf	fsr2l
  2445  0001AA  501D               	movf	((c:OdbierzRamke@message+1)),c,w
  2446  0001AC  22DA               	addwfc	fsr2h
  2447  0001AE  501E               	movf	(??_OdbierzRamke+0+0),c,w
  2448  0001B0  12DE               	iorwf	postinc2
  2449  0001B2  501F               	movf	(??_OdbierzRamke+0+1),c,w
  2450  0001B4  12DD               	iorwf	postdec2
  2451                           opt subtitle "HI-TECH Software Omniscient Code Generator (Lite mode) build 49521"
  2452                           
  2453  0001B6                     l1235:
  2454                           opt subtitle "HI-TECH Software Omniscient Code Generator (Lite mode) build 49521"
  2455  0001B6  EE20 F002          	lfsr	2,02h
  2456  0001BA  501C               	movf	((c:OdbierzRamke@message)),c,w
  2457  0001BC  26D9               	addwf	fsr2l
  2458  0001BE  501D               	movf	((c:OdbierzRamke@message+1)),c,w
  2459  0001C0  22DA               	addwfc	fsr2h
  2460  0001C2  0E03               	movlw	low(03h)
  2461  0001C4  6EDF               	movwf	indf2
  2462                           opt subtitle "HI-TECH Software Omniscient Code Generator (Lite mode) build 49521"
  2463                           
  2464  0001C6                     l1237:
  2465                           opt subtitle "HI-TECH Software Omniscient Code Generator (Lite mode) build 49521"
  2466  0001C6  EE20 F005          	lfsr	2,05h
  2467  0001CA  5021               	movf	((c:OdbierzRamke@pointerU8)),c,w
  2468  0001CC  26D9               	addwf	fsr2l
  2469  0001CE  5022               	movf	((c:OdbierzRamke@pointerU8+1)),c,w
  2470  0001D0  22DA               	addwfc	fsr2h
  2471  0001D2  50DF               	movf	indf2,w
  2472  0001D4  6E1E               	movwf	(??_OdbierzRamke+0+0)&0ffh,c
  2473                           opt subtitle "HI-TECH Software Omniscient Code Generator (Lite mode) build 49521"
  2474  0001D6  BC1E               	btfsc	((??_OdbierzRamke+0+0)),c,(6)&7
  2475  0001D8  D001               	goto	u441
  2476  0001DA  D001               	goto	u440
  2477  0001DC                     u441:
  2478  0001DC  D058               	goto	l128
  2479  0001DE                     u440:
  2480                           opt subtitle "HI-TECH Software Omniscient Code Generator (Lite mode) build 49521"
  2481                           
  2482  0001DE                     l1239:
  2483                           opt subtitle "HI-TECH Software Omniscient Code Generator (Lite mode) build 49521"
  2484                           
  2485  0001DE  EE20 F001          	lfsr	2,01h
  2486  0001E2  501C               	movf	((c:OdbierzRamke@message)),c,w
  2487  0001E4  26D9               	addwf	fsr2l
  2488  0001E6  501D               	movf	((c:OdbierzRamke@message+1)),c,w
  2489  0001E8  22DA               	addwfc	fsr2h
  2490  0001EA  0E01               	movlw	low(01h)
  2491  0001EC  6EDF               	movwf	indf2
  2492                           opt subtitle "HI-TECH Software Omniscient Code Generator (Lite mode) build 49521"
  2493                           
  2494  0001EE                     l1241:
  2495                           opt subtitle "HI-TECH Software Omniscient Code Generator (Lite mode) build 49521"
  2496  0001EE  EE20 F010          	lfsr	2,010h
  2497  0001F2  501C               	movf	((c:OdbierzRamke@message)),c,w
  2498  0001F4  26D9               	addwf	fsr2l
  2499  0001F6  501D               	movf	((c:OdbierzRamke@message+1)),c,w
  2500  0001F8  22DA               	addwfc	fsr2h
  2501  0001FA  EE10 F005          	lfsr	1,05h
  2502  0001FE  5021               	movf	((c:OdbierzRamke@pointerU8)),c,w
  2503  000200  26E1               	addwf	fsr1l
  2504  000202  5022               	movf	((c:OdbierzRamke@pointerU8+1)),c,w
  2505  000204  22E2               	addwfc	fsr1h
  2506  000206  50E7               	movf	indf1,w
  2507  000208  0B0F               	andlw	low(0Fh)
  2508  00020A  6EDF               	movwf	indf2
  2509                           opt subtitle "HI-TECH Software Omniscient Code Generator (Lite mode) build 49521"
  2510                           
  2511                           opt pagewidth 120
  2512  00020C                     l1243:
  2513                           opt subtitle "HI-TECH Software Omniscient Code Generator (Lite mode) build 49521"
  2514  00020C  6E1E               	movwf	(??_OdbierzRamke+0+0)&0ffh,c
  2515  00020E  0E00               	movlw	low(0)
  2516  000210  6E20               	movwf	((c:OdbierzRamke@i)),c
  2517  000212  501E               	movf	(??_OdbierzRamke+0+0)&0ffh,c,w
  2518                           opt subtitle "HI-TECH Software Omniscient Code Generator (Lite mode) build 49521"
  2519  000214                     l1245:
  2520  000214  0E07               	movlw	(08h-1)
  2521  000216  6420               	cpfsgt	((c:OdbierzRamke@i)),c
  2522  000218  D001               	goto	u451
  2523  00021A  D001               	goto	u450
  2524  00021C                     u451:
  2525  00021C  D002               	goto	l1249
  2526  00021E                     u450:
  2527  00021E  D024               	goto	l1255
  2528                           opt subtitle "HI-TECH Software Omniscient Code Generator (Lite mode) build 49521"
  2529  000220                     l1247:
  2530  000220  D023               	goto	l1255
  2531                           opt subtitle "HI-TECH Software Omniscient Code Generator (Lite mode) build 49521"
  2532                           
  2533  000222                     l126:
  2534                           opt subtitle "HI-TECH Software Omniscient Code Generator (Lite mode) build 49521"
  2535                           
  2536  000222                     l1249:
  2537                           opt subtitle "HI-TECH Software Omniscient Code Generator (Lite mode) build 49521"
  2538                           
  2539  000222  5020               	movf	((c:OdbierzRamke@i)),c,w
  2540  000224  0D01               	mullw	01h
  2541  000226  50F3               	movf	(prodl),c,w
  2542  000228  2421               	addwf	((c:OdbierzRamke@pointerU8)),c,w
  2543  00022A  6E1E               	movwf	(??_OdbierzRamke+0+0)&0ffh,c
  2544  00022C  50F4               	movf	(prodh),c,w
  2545  00022E  2022               	addwfc	((c:OdbierzRamke@pointerU8+1)),c,w
  2546  000230  6E1F               	movwf	1+(??_OdbierzRamke+0+0)&0ffh,c
  2547  000232  0E06               	movlw	low(06h)
  2548  000234  241E               	addwf	(??_OdbierzRamke+0+0),c,w
  2549  000236  6ED9               	movwf	c:fsr2l
  2550  000238  0E00               	movlw	high(06h)
  2551  00023A  201F               	addwfc	(??_OdbierzRamke+0+1),c,w
  2552  00023C  6EDA               	movwf	1+c:fsr2l
  2553  00023E  5020               	movf	((c:OdbierzRamke@i)),c,w
  2554  000240  0D01               	mullw	01h
  2555  000242  0E08               	movlw	08h
  2556  000244  26F3               	addwf	(prodl),c
  2557  000246  0E00               	movlw	0
  2558  000248  22F4               	addwfc	(prodh),c
  2559  00024A  50F3               	movf	(prodl),c,w
  2560  00024C  241C               	addwf	((c:OdbierzRamke@message)),c,w
  2561  00024E  6EE1               	movwf	c:fsr1l
  2562  000250  50F4               	movf	(prodh),c,w
  2563  000252  201D               	addwfc	((c:OdbierzRamke@message+1)),c,w
  2564  000254  6EE2               	movwf	1+c:fsr1l
  2565  000256  CFDF FFE7          	movff	indf2,indf1
  2566                           opt subtitle "HI-TECH Software Omniscient Code Generator (Lite mode) build 49521"
  2567                           
  2568  00025A                     l1251:
  2569  00025A  2A20               	incf	((c:OdbierzRamke@i)),c
  2570                           opt subtitle "HI-TECH Software Omniscient Code Generator (Lite mode) build 49521"
  2571  00025C                     l1253:
  2572  00025C  0E07               	movlw	(08h-1)
  2573  00025E  6420               	cpfsgt	((c:OdbierzRamke@i)),c
  2574  000260  D001               	goto	u461
  2575  000262  D001               	goto	u460
  2576  000264                     u461:
  2577  000264  D7DE               	goto	l1249
  2578  000266                     u460:
  2579  000266  D000               	goto	l1255
  2580                           opt subtitle "HI-TECH Software Omniscient Code Generator (Lite mode) build 49521"
  2581  000268                     l127:
  2582                           opt subtitle "HI-TECH Software Omniscient Code Generator (Lite mode) build 49521"
  2583                           
  2584  000268                     l1255:
  2585                           opt subtitle "HI-TECH Software Omniscient Code Generator (Lite mode) build 49521"
  2586                           
  2587  000268  C021  FFD9         	movff	(c:OdbierzRamke@pointerU8),fsr2l
  2588  00026C  C022  FFDA         	movff	(c:OdbierzRamke@pointerU8+1),fsr2h
  2589  000270  0E7F               	movlw	07Fh
  2590  000272  16DF               	andwf	indf2
  2591                           opt subtitle "HI-TECH Software Omniscient Code Generator (Lite mode) build 49521"
  2592                           
  2593  000274                     l1257:
  2594                           opt subtitle "HI-TECH Software Omniscient Code Generator (Lite mode) build 49521"
  2595  000274  ECCD  F002         	call	_ZapiszDane	;wreg free
  2596                           opt subtitle "HI-TECH Software Omniscient Code Generator (Lite mode) build 49521"
  2597                           
  2598  000278                     l1259:
  2599                           opt subtitle "HI-TECH Software Omniscient Code Generator (Lite mode) build 49521"
  2600  000278  0EF4               	movlw	high(0F424h)
  2601  00027A  6ED7               	movwf	((c:4054+1)),c	;volatile
  2602  00027C  0E24               	movlw	low(0F424h)
  2603  00027E  6ED6               	movwf	((c:4054)),c	;volatile
  2604                           opt subtitle "HI-TECH Software Omniscient Code Generator (Lite mode) build 49521"
  2605                           
  2606  000280                     l1261:
  2607                           opt subtitle "HI-TECH Software Omniscient Code Generator (Lite mode) build 49521"
  2608  000280  6E1E               	movwf	(??_OdbierzRamke+0+0)&0ffh,c
  2609  000282  0E00               	movlw	low(0)
  2610  000284  6E2A               	movwf	((c:_counter)),c
  2611  000286  501E               	movf	(??_OdbierzRamke+0+0)&0ffh,c,w
  2612                           opt subtitle "HI-TECH Software Omniscient Code Generator (Lite mode) build 49521"
  2613                           
  2614  000288  0004               clrwdt ;# 
  2615                           opt subtitle "HI-TECH Software Omniscient Code Generator (Lite mode) build 49521"
  2616  00028A  D001               	goto	l128
  2617                           opt subtitle "HI-TECH Software Omniscient Code Generator (Lite mode) build 49521"
  2618                           
  2619  00028C                     l125:
  2620  00028C  D000               	goto	l128
  2621                           opt subtitle "HI-TECH Software Omniscient Code Generator (Lite mode) build 49521"
  2622                           
  2623  00028E                     l124:
  2624                           opt subtitle "HI-TECH Software Omniscient Code Generator (Lite mode) build 49521"
  2625                           
  2626  00028E                     l128:
  2627  00028E  0012               	return
  2628                           opt subtitle "HI-TECH Software Omniscient Code Generator (Lite mode) build 49521"
  2629                           
  2630  000290                     	__end_of_OdbierzRamke:
  2631                           opt subtitle "HI-TECH Software Omniscient Code Generator (Lite mode) build 49521"
  2632                           
  2633                           opt pagewidth 120
  2634                           
  2635                           	opt lm
  2636                           
  2637                           	processor	18F26K80
  2638                           porta	equ	0F80h
  2639                           portb	equ	0F81h
  2640                           portc	equ	0F82h
  2641                           portd	equ	0F83h
  2642                           porte	equ	0F84h
  2643                           lata	equ	0F89h
  2644                           latb	equ	0F8Ah
  2645                           latc	equ	0F8Bh
  2646                           latd	equ	0F8Ch
  2647                           late	equ	0F8Dh
  2648                           trisa	equ	0F92h
  2649                           trisb	equ	0F93h
  2650                           trisc	equ	0F94h
  2651                           trisd	equ	0F95h
  2652                           trise	equ	0F96h
  2653                           pie1	equ	0F9Dh
  2654                           pir1	equ	0F9Eh
  2655                           ipr1	equ	0F9Fh
  2656                           pie2	equ	0FA0h
  2657                           pir2	equ	0FA1h
  2658                           ipr2	equ	0FA2h
  2659                           t3con	equ	0FB1h
  2660                           tmr3l	equ	0FB2h
  2661                           tmr3h	equ	0FB3h
  2662                           ccp1con	equ	0FBDh
  2663                           ccpr1l	equ	0FBEh
  2664                           ccpr1h	equ	0FBFh
  2665                           adcon1	equ	0FC1h
  2666  00059A                     __ptext2:
  2667                           opt subtitle "HI-TECH Software Omniscient Code Generator (Lite mode) build 49521"
  2668                           
  2669                           opt pagewidth 120
  2670                           
  2671  0000                     	__size_of_ZapiszDane	equ	__end_of_ZapiszDane-_ZapiszDane
  2672                           opt subtitle "HI-TECH Software Omniscient Code Generator (Lite mode) build 49521"
  2673  00059A                     _ZapiszDane:
  2674                           opt subtitle "HI-TECH Software Omniscient Code Generator (Lite mode) build 49521"
  2675                           
  2676                           opt pagewidth 120
  2677  00059A                     l1183:
  2678                           opt subtitle "HI-TECH Software Omniscient Code Generator (Lite mode) build 49521"
  2679                           
  2680                           opt pagewidth 120
  2681  00059A  6E19               	movwf	(??_ZapiszDane+0+0)&0ffh,c
  2682  00059C  0E00               	movlw	low(0)
  2683  00059E  6E1B               	movwf	((c:ZapiszDane@k)),c
  2684  0005A0  5019               	movf	(??_ZapiszDane+0+0)&0ffh,c,w
  2685  0005A2  D01B               	goto	l1189
  2686                           opt subtitle "HI-TECH Software Omniscient Code Generator (Lite mode) build 49521"
  2687                           
  2688  0005A4                     l108:
  2689                           opt subtitle "HI-TECH Software Omniscient Code Generator (Lite mode) build 49521"
  2690                           
  2691  0005A4                     l1185:
  2692                           opt subtitle "HI-TECH Software Omniscient Code Generator (Lite mode) build 49521"
  2693                           
  2694  0005A4  501B               	movf	((c:ZapiszDane@k)),c,w
  2695  0005A6  0D01               	mullw	01h
  2696  0005A8  0E33               	movlw	low((c:_canRxMessage)+08h)
  2697  0005AA  24F3               	addwf	(prodl),c,w
  2698  0005AC  6ED9               	movwf	c:fsr2l
  2699  0005AE  0E00               	movlw	high((c:_canRxMessage)+08h)
  2700  0005B0  20F4               	addwfc	prod+1,w
  2701  0005B2  6EDA               	movwf	1+c:fsr2l
  2702  0005B4  5029               	movf	((c:ZapiszDane@i)),c,w
  2703  0005B6  C01B  F019         	movff	(c:ZapiszDane@k),??_ZapiszDane+0+0
  2704  0005BA  6A1A               	clrf	(??_ZapiszDane+0+0+1)&0ffh,c
  2705  0005BC  2619               	addwf	(??_ZapiszDane+0+0),c
  2706  0005BE  0E00               	movlw	0
  2707  0005C0  221A               	addwfc	(??_ZapiszDane+0+1),c
  2708  0005C2  0100               	movlb	0	; () banked
  2709  0005C4  0E60               	movlw	low(_buforCAN)
  2710  0005C6  2419               	addwf	(??_ZapiszDane+0+0),c,w
  2711  0005C8  6EE1               	movwf	c:fsr1l
  2712  0005CA  0100               	movlb	0	; () banked
  2713  0005CC  0E00               	movlw	high(_buforCAN)
  2714  0005CE  201A               	addwfc	(??_ZapiszDane+0+1),c,w
  2715  0005D0  6EE2               	movwf	1+c:fsr1l
  2716  0005D2  CFDF FFE7          	movff	indf2,indf1
  2717                           opt subtitle "HI-TECH Software Omniscient Code Generator (Lite mode) build 49521"
  2718                           
  2719  0005D6                     l1187:; BSR set to: 0
  2720                           opt subtitle "HI-TECH Software Omniscient Code Generator (Lite mode) build 49521"
  2721  0005D6  2A1B               	incf	((c:ZapiszDane@k)),c
  2722  0005D8  D000               	goto	l1189
  2723                           opt subtitle "HI-TECH Software Omniscient Code Generator (Lite mode) build 49521"
  2724  0005DA                     l107:; BSR set to: 0
  2725                           opt subtitle "HI-TECH Software Omniscient Code Generator (Lite mode) build 49521"
  2726                           
  2727  0005DA                     l1189:
  2728  0005DA  503B               	movf	(0+((c:_canRxMessage)+010h)),c,w
  2729  0005DC  5C1B               	subwf	((c:ZapiszDane@k)),c,w
  2730  0005DE  A0D8               	btfss	status,0
  2731  0005E0  D001               	goto	u391
  2732  0005E2  D001               	goto	u390
  2733  0005E4                     u391:
  2734  0005E4  D7DF               	goto	l1185
  2735  0005E6                     u390:
  2736  0005E6  D000               	goto	l1191
  2737                           opt subtitle "HI-TECH Software Omniscient Code Generator (Lite mode) build 49521"
  2738  0005E8                     l109:
  2739                           opt subtitle "HI-TECH Software Omniscient Code Generator (Lite mode) build 49521"
  2740                           
  2741  0005E8                     l1191:
  2742                           opt subtitle "HI-TECH Software Omniscient Code Generator (Lite mode) build 49521"
  2743                           
  2744  0005E8  503B               	movf	(0+((c:_canRxMessage)+010h)),c,w
  2745  0005EA  2629               	addwf	((c:ZapiszDane@i)),c
  2746                           opt subtitle "HI-TECH Software Omniscient Code Generator (Lite mode) build 49521"
  2747                           
  2748  0005EC                     l1193:
  2749                           opt subtitle "HI-TECH Software Omniscient Code Generator (Lite mode) build 49521"
  2750  0005EC  0E3F               	movlw	(040h-1)
  2751  0005EE  6429               	cpfsgt	((c:ZapiszDane@i)),c
  2752  0005F0  D001               	goto	u401
  2753  0005F2  D001               	goto	u400
  2754  0005F4                     u401:
  2755  0005F4  D045               	goto	l111
  2756  0005F6                     u400:
  2757                           opt subtitle "HI-TECH Software Omniscient Code Generator (Lite mode) build 49521"
  2758                           
  2759  0005F6                     l1195:
  2760                           opt subtitle "HI-TECH Software Omniscient Code Generator (Lite mode) build 49521"
  2761                           
  2762                           opt pagewidth 120
  2763  0005F6  AA89               	btfss	((c:3977)),c,5	;volatile
  2764  0005F8  D001               	goto	u411
  2765  0005FA  D002               	goto	u410
  2766  0005FC                     u411:
  2767  0005FC  0E01               	movlw	1
  2768  0005FE  D001               	goto	u416
  2769  000600                     u410:
  2770  000600  0E00               	movlw	0
  2771  000602                     u416:
  2772  000602  6E19               	movwf	(??_ZapiszDane+0+0)&0ffh,c
  2773  000604  3A19               	swapf	((??_ZapiszDane+0+0)),c
  2774  000606  4619               	rlncf	((??_ZapiszDane+0+0)),c
  2775  000608  5089               	movf	((c:3977)),c,w	;volatile
  2776  00060A  1819               	xorwf	((??_ZapiszDane+0+0)),c,w
  2777  00060C  0BDF               	andlw	not (((1<<1)-1)<<5)
  2778  00060E  1819               	xorwf	((??_ZapiszDane+0+0)),c,w
  2779  000610  6E89               	movwf	((c:3977)),c	;volatile
  2780                           opt subtitle "HI-TECH Software Omniscient Code Generator (Lite mode) build 49521"
  2781                           
  2782  000612                     l1197:
  2783                           opt subtitle "HI-TECH Software Omniscient Code Generator (Lite mode) build 49521"
  2784  000612  C025  F001         	movff	(c:_SourceAddr),(c:?_EraseFlash)
  2785  000616  C026  F002         	movff	(c:_SourceAddr+1),(c:?_EraseFlash+1)
  2786  00061A  C027  F003         	movff	(c:_SourceAddr+2),(c:?_EraseFlash+2)
  2787  00061E  C028  F004         	movff	(c:_SourceAddr+3),(c:?_EraseFlash+3)
  2788  000622  0E40               	movlw	040h
  2789  000624  2425               	addwf	((c:_SourceAddr)),c,w
  2790  000626  6E05               	movwf	(0+((c:?_EraseFlash)+04h)),c
  2791  000628  0E00               	movlw	0
  2792  00062A  2026               	addwfc	((c:_SourceAddr+1)),c,w
  2793  00062C  6E06               	movwf	1+(0+((c:?_EraseFlash)+04h)),c
  2794  00062E  0E00               	movlw	0
  2795  000630  2027               	addwfc	((c:_SourceAddr+2)),c,w
  2796  000632  6E07               	movwf	2+(0+((c:?_EraseFlash)+04h)),c
  2797  000634  0E00               	movlw	0
  2798  000636  2028               	addwfc	((c:_SourceAddr+3)),c,w
  2799  000638  6E08               	movwf	3+(0+((c:?_EraseFlash)+04h)),c
  2800  00063A  EC28  F002         	call	_EraseFlash	;wreg free
  2801                           opt subtitle "HI-TECH Software Omniscient Code Generator (Lite mode) build 49521"
  2802                           
  2803  00063E                     l1199:
  2804                           opt subtitle "HI-TECH Software Omniscient Code Generator (Lite mode) build 49521"
  2805  00063E  C025  F001         	movff	(c:_SourceAddr),(c:?_WriteBytesFlash)
  2806  000642  C026  F002         	movff	(c:_SourceAddr+1),(c:?_WriteBytesFlash+1)
  2807  000646  C027  F003         	movff	(c:_SourceAddr+2),(c:?_WriteBytesFlash+2)
  2808  00064A  C028  F004         	movff	(c:_SourceAddr+3),(c:?_WriteBytesFlash+3)
  2809  00064E  0E00               	movlw	high(040h)
  2810  000650  6E06               	movwf	(1+((c:?_WriteBytesFlash)+04h)),c
  2811  000652  0E40               	movlw	low(040h)
  2812  000654  6E05               	movwf	(0+((c:?_WriteBytesFlash)+04h)),c
  2813  000656  0100               	movlb	0	; () banked
  2814  000658  0E00               	movlw	high(_buforCAN)
  2815  00065A  6E08               	movwf	(1+((c:?_WriteBytesFlash)+06h)),c
  2816  00065C  0100               	movlb	0	; () banked
  2817  00065E  0E60               	movlw	low(_buforCAN)
  2818  000660  6E07               	movwf	(0+((c:?_WriteBytesFlash)+06h)),c
  2819  000662  EC48  F001         	call	_WriteBytesFlash	;wreg free
  2820                           opt subtitle "HI-TECH Software Omniscient Code Generator (Lite mode) build 49521"
  2821                           
  2822  000666                     l1201:
  2823                           opt subtitle "HI-TECH Software Omniscient Code Generator (Lite mode) build 49521"
  2824  000666  0E40               	movlw	040h
  2825  000668  2625               	addwf	((c:_SourceAddr)),c
  2826  00066A  0E00               	movlw	0
  2827  00066C  2226               	addwfc	((c:_SourceAddr+1)),c
  2828  00066E  0E00               	movlw	0
  2829  000670  2227               	addwfc	((c:_SourceAddr+2)),c
  2830  000672  0E00               	movlw	0
  2831  000674  2228               	addwfc	((c:_SourceAddr+3)),c
  2832                           opt subtitle "HI-TECH Software Omniscient Code Generator (Lite mode) build 49521"
  2833                           
  2834  000676                     l1203:
  2835                           opt subtitle "HI-TECH Software Omniscient Code Generator (Lite mode) build 49521"
  2836  000676  6E19               	movwf	(??_ZapiszDane+0+0)&0ffh,c
  2837  000678  0E00               	movlw	low(0)
  2838  00067A  6E29               	movwf	((c:ZapiszDane@i)),c
  2839  00067C  5019               	movf	(??_ZapiszDane+0+0)&0ffh,c,w
  2840  00067E  D000               	goto	l111
  2841                           opt subtitle "HI-TECH Software Omniscient Code Generator (Lite mode) build 49521"
  2842                           
  2843  000680                     l110:
  2844                           opt subtitle "HI-TECH Software Omniscient Code Generator (Lite mode) build 49521"
  2845                           
  2846  000680                     l111:
  2847  000680  0012               	return
  2848                           opt subtitle "HI-TECH Software Omniscient Code Generator (Lite mode) build 49521"
  2849                           
  2850  000682                     	__end_of_ZapiszDane:
  2851                           opt subtitle "HI-TECH Software Omniscient Code Generator (Lite mode) build 49521"
  2852                           
  2853                           opt pagewidth 120
  2854                           
  2855                           	opt lm
  2856                           
  2857                           	processor	18F26K80
  2858                           porta	equ	0F80h
  2859                           portb	equ	0F81h
  2860                           portc	equ	0F82h
  2861                           portd	equ	0F83h
  2862                           porte	equ	0F84h
  2863                           lata	equ	0F89h
  2864                           latb	equ	0F8Ah
  2865                           latc	equ	0F8Bh
  2866                           latd	equ	0F8Ch
  2867                           late	equ	0F8Dh
  2868                           trisa	equ	0F92h
  2869                           trisb	equ	0F93h
  2870                           trisc	equ	0F94h
  2871                           trisd	equ	0F95h
  2872                           trise	equ	0F96h
  2873                           pie1	equ	0F9Dh
  2874                           pir1	equ	0F9Eh
  2875                           ipr1	equ	0F9Fh
  2876                           pie2	equ	0FA0h
  2877                           pir2	equ	0FA1h
  2878                           ipr2	equ	0FA2h
  2879                           t3con	equ	0FB1h
  2880                           tmr3l	equ	0FB2h
  2881                           tmr3h	equ	0FB3h
  2882                           ccp1con	equ	0FBDh
  2883                           ccpr1l	equ	0FBEh
  2884                           ccpr1h	equ	0FBFh
  2885                           adcon1	equ	0FC1h
  2886  000450                     __ptext3:
  2887                           opt subtitle "HI-TECH Software Omniscient Code Generator (Lite mode) build 49521"
  2888                           
  2889                           opt pagewidth 120
  2890                           
  2891  0000                     	__size_of_EraseFlash	equ	__end_of_EraseFlash-_EraseFlash
  2892                           opt subtitle "HI-TECH Software Omniscient Code Generator (Lite mode) build 49521"
  2893  000450                     _EraseFlash:
  2894                           opt subtitle "HI-TECH Software Omniscient Code Generator (Lite mode) build 49521"
  2895                           
  2896                           opt pagewidth 120
  2897  000450                     l1117:
  2898  000450  6E09               	movwf	(??_EraseFlash+0+0)&0ffh,c
  2899  000452  0E00               	movlw	low(0)
  2900  000454  6E0A               	movwf	((c:EraseFlash@flag)),c
  2901  000456  5009               	movf	(??_EraseFlash+0+0)&0ffh,c,w
  2902                           opt subtitle "HI-TECH Software Omniscient Code Generator (Lite mode) build 49521"
  2903                           
  2904  000458                     l1119:
  2905  000458  C001  F00B         	movff	(c:EraseFlash@startaddr),(c:EraseFlash@flash_addr)
  2906  00045C  C002  F00C         	movff	(c:EraseFlash@startaddr+1),(c:EraseFlash@flash_addr+1)
  2907  000460  C003  F00D         	movff	(c:EraseFlash@startaddr+2),(c:EraseFlash@flash_addr+2)
  2908  000464  C004  F00E         	movff	(c:EraseFlash@startaddr+3),(c:EraseFlash@flash_addr+3)
  2909                           opt subtitle "HI-TECH Software Omniscient Code Generator (Lite mode) build 49521"
  2910  000468  D02C               	goto	l159
  2911                           opt subtitle "HI-TECH Software Omniscient Code Generator (Lite mode) build 49521"
  2912  00046A                     l160:
  2913                           opt subtitle "HI-TECH Software Omniscient Code Generator (Lite mode) build 49521"
  2914  00046A  C00D  FFF8         	movff	0+((c:EraseFlash@flash_addr)+02h),(c:4088)	;volatile
  2915                           opt subtitle "HI-TECH Software Omniscient Code Generator (Lite mode) build 49521"
  2916  00046E  C00C  FFF7         	movff	0+((c:EraseFlash@flash_addr)+01h),(c:4087)	;volatile
  2917                           opt subtitle "HI-TECH Software Omniscient Code Generator (Lite mode) build 49521"
  2918  000472  C00B  FFF6         	movff	(c:EraseFlash@flash_addr),(c:4086)	;volatile
  2919                           opt subtitle "HI-TECH Software Omniscient Code Generator (Lite mode) build 49521"
  2920  000476  8E7F               	bsf	((c:3967)),c,7	;volatile
  2921                           opt subtitle "HI-TECH Software Omniscient Code Generator (Lite mode) build 49521"
  2922  000478  9C7F               	bcf	((c:3967)),c,6	;volatile
  2923                           opt subtitle "HI-TECH Software Omniscient Code Generator (Lite mode) build 49521"
  2924  00047A  847F               	bsf	((c:3967)),c,2	;volatile
  2925                           opt subtitle "HI-TECH Software Omniscient Code Generator (Lite mode) build 49521"
  2926  00047C  887F               	bsf	((c:3967)),c,4	;volatile
  2927                           opt subtitle "HI-TECH Software Omniscient Code Generator (Lite mode) build 49521"
  2928                           
  2929  00047E  AEF2               	btfss	((c:4082)),c,7	;volatile
  2930  000480  D001               	goto	u291
  2931  000482  D001               	goto	u290
  2932  000484                     u291:
  2933  000484  D006               	goto	l1125
  2934  000486                     u290:
  2935                           opt subtitle "HI-TECH Software Omniscient Code Generator (Lite mode) build 49521"
  2936                           
  2937  000486                     l1121:
  2938  000486  9EF2               	bcf	((c:4082)),c,7	;volatile
  2939                           opt subtitle "HI-TECH Software Omniscient Code Generator (Lite mode) build 49521"
  2940                           
  2941  000488                     l1123:
  2942  000488  6E09               	movwf	(??_EraseFlash+0+0)&0ffh,c
  2943  00048A  0E01               	movlw	low(01h)
  2944  00048C  6E0A               	movwf	((c:EraseFlash@flag)),c
  2945  00048E  5009               	movf	(??_EraseFlash+0+0)&0ffh,c,w
  2946  000490  D000               	goto	l1125
  2947                           opt subtitle "HI-TECH Software Omniscient Code Generator (Lite mode) build 49521"
  2948                           
  2949  000492                     l161:
  2950                           opt subtitle "HI-TECH Software Omniscient Code Generator (Lite mode) build 49521"
  2951                           
  2952  000492                     l1125:
  2953  000492  0E55               	movlw	low(055h)
  2954  000494  6E7E               	movwf	((c:3966)),c	;volatile
  2955                           opt subtitle "HI-TECH Software Omniscient Code Generator (Lite mode) build 49521"
  2956                           
  2957  000496                     l1127:
  2958  000496  0EAA               	movlw	low(0AAh)
  2959  000498  6E7E               	movwf	((c:3966)),c	;volatile
  2960                           opt subtitle "HI-TECH Software Omniscient Code Generator (Lite mode) build 49521"
  2961                           
  2962  00049A                     l1129:
  2963  00049A  827F               	bsf	((c:3967)),c,1	;volatile
  2964                           opt subtitle "HI-TECH Software Omniscient Code Generator (Lite mode) build 49521"
  2965                           
  2966  00049C                     l1131:
  2967  00049C  500A               	movf	((c:EraseFlash@flag)),c,w
  2968  00049E  B4D8               	btfsc	status,2
  2969  0004A0  D001               	goto	u301
  2970  0004A2  D001               	goto	u300
  2971  0004A4                     u301:
  2972  0004A4  D002               	goto	l1135
  2973  0004A6                     u300:
  2974                           opt subtitle "HI-TECH Software Omniscient Code Generator (Lite mode) build 49521"
  2975                           
  2976  0004A6                     l1133:
  2977  0004A6  8EF2               	bsf	((c:4082)),c,7	;volatile
  2978  0004A8  D000               	goto	l1135
  2979                           opt subtitle "HI-TECH Software Omniscient Code Generator (Lite mode) build 49521"
  2980  0004AA                     l162:
  2981                           opt subtitle "HI-TECH Software Omniscient Code Generator (Lite mode) build 49521"
  2982                           
  2983  0004AA                     l1135:
  2984  0004AA  0E40               	movlw	040h
  2985  0004AC  240B               	addwf	((c:EraseFlash@flash_addr)),c,w
  2986  0004AE  6E0B               	movwf	((c:EraseFlash@flash_addr)),c
  2987  0004B0  0E00               	movlw	0
  2988  0004B2  200C               	addwfc	((c:EraseFlash@flash_addr+1)),c,w
  2989  0004B4  6E0C               	movwf	1+((c:EraseFlash@flash_addr)),c
  2990  0004B6  0E00               	movlw	0
  2991  0004B8  200D               	addwfc	((c:EraseFlash@flash_addr+2)),c,w
  2992  0004BA  6E0D               	movwf	2+((c:EraseFlash@flash_addr)),c
  2993  0004BC  0E00               	movlw	0
  2994  0004BE  200E               	addwfc	((c:EraseFlash@flash_addr+3)),c,w
  2995  0004C0  6E0E               	movwf	3+((c:EraseFlash@flash_addr)),c
  2996                           opt subtitle "HI-TECH Software Omniscient Code Generator (Lite mode) build 49521"
  2997                           
  2998  0004C2                     l159:
  2999                           opt subtitle "HI-TECH Software Omniscient Code Generator (Lite mode) build 49521"
  3000  0004C2  5005               	movf	((c:EraseFlash@endaddr)),c,w
  3001  0004C4  5C0B               	subwf	((c:EraseFlash@flash_addr)),c,w
  3002  0004C6  5006               	movf	((c:EraseFlash@endaddr+1)),c,w
  3003  0004C8  580C               	subwfb	((c:EraseFlash@flash_addr+1)),c,w
  3004  0004CA  5007               	movf	((c:EraseFlash@endaddr+2)),c,w
  3005  0004CC  580D               	subwfb	((c:EraseFlash@flash_addr+2)),c,w
  3006  0004CE  5008               	movf	((c:EraseFlash@endaddr+3)),c,w
  3007  0004D0  580E               	subwfb	((c:EraseFlash@flash_addr+3)),c,w
  3008  0004D2  A0D8               	btfss	status,0
  3009  0004D4  D001               	goto	u311
  3010  0004D6  D001               	goto	u310
  3011  0004D8                     u311:
  3012  0004D8  D7C8               	goto	l160
  3013  0004DA                     u310:
  3014  0004DA  D000               	goto	l164
  3015                           opt subtitle "HI-TECH Software Omniscient Code Generator (Lite mode) build 49521"
  3016  0004DC                     l163:
  3017                           opt subtitle "HI-TECH Software Omniscient Code Generator (Lite mode) build 49521"
  3018                           
  3019  0004DC                     l164:
  3020  0004DC  0012               	return
  3021                           opt subtitle "HI-TECH Software Omniscient Code Generator (Lite mode) build 49521"
  3022                           
  3023  0004DE                     	__end_of_EraseFlash:
  3024                           opt subtitle "HI-TECH Software Omniscient Code Generator (Lite mode) build 49521"
  3025                           
  3026                           opt pagewidth 120
  3027                           
  3028                           	opt lm
  3029                           
  3030                           	processor	18F26K80
  3031                           porta	equ	0F80h
  3032                           portb	equ	0F81h
  3033                           portc	equ	0F82h
  3034                           portd	equ	0F83h
  3035                           porte	equ	0F84h
  3036                           lata	equ	0F89h
  3037                           latb	equ	0F8Ah
  3038                           latc	equ	0F8Bh
  3039                           latd	equ	0F8Ch
  3040                           late	equ	0F8Dh
  3041                           trisa	equ	0F92h
  3042                           trisb	equ	0F93h
  3043                           trisc	equ	0F94h
  3044                           trisd	equ	0F95h
  3045                           trise	equ	0F96h
  3046                           pie1	equ	0F9Dh
  3047                           pir1	equ	0F9Eh
  3048                           ipr1	equ	0F9Fh
  3049                           pie2	equ	0FA0h
  3050                           pir2	equ	0FA1h
  3051                           ipr2	equ	0FA2h
  3052                           t3con	equ	0FB1h
  3053                           tmr3l	equ	0FB2h
  3054                           tmr3h	equ	0FB3h
  3055                           ccp1con	equ	0FBDh
  3056                           ccpr1l	equ	0FBEh
  3057                           ccpr1h	equ	0FBFh
  3058                           adcon1	equ	0FC1h
  3059                           adcon0	equ	0FC2h
  3060                           adresl	equ	0FC3h
  3061                           adresh	equ	0FC4h
  3062                           sspcon2	equ	0FC5h
  3063                           sspcon1	equ	0FC6h
  3064                           sspstat	equ	0FC7h
  3065                           sspadd	equ	0FC8h
  3066  000290                     __ptext4:
  3067                           opt subtitle "HI-TECH Software Omniscient Code Generator (Lite mode) build 49521"
  3068                           
  3069                           opt pagewidth 120
  3070                           
  3071  0000                     	__size_of_WriteBytesFlash	equ	__end_of_WriteBytesFlash-_WriteBytesFlash
  3072                           opt subtitle "HI-TECH Software Omniscient Code Generator (Lite mode) build 49521"
  3073  000290                     _WriteBytesFlash:
  3074                           opt subtitle "HI-TECH Software Omniscient Code Generator (Lite mode) build 49521"
  3075                           
  3076                           opt pagewidth 120
  3077  000290                     l1137:
  3078  000290  6E09               	movwf	(??_WriteBytesFlash+0+0)&0ffh,c
  3079  000292  0E00               	movlw	low(0)
  3080  000294  6E10               	movwf	((c:WriteBytesFlash@write_byte)),c
  3081  000296  5009               	movf	(??_WriteBytesFlash+0+0)&0ffh,c,w
  3082  000298  6E09               	movwf	(??_WriteBytesFlash+0+0)&0ffh,c
  3083  00029A  0E00               	movlw	low(0)
  3084  00029C  6E11               	movwf	((c:WriteBytesFlash@flag)),c
  3085  00029E  5009               	movf	(??_WriteBytesFlash+0+0)&0ffh,c,w
  3086                           opt subtitle "HI-TECH Software Omniscient Code Generator (Lite mode) build 49521"
  3087                           
  3088  0002A0                     l1139:
  3089  0002A0  C001  F015         	movff	(c:WriteBytesFlash@startaddr),(c:WriteBytesFlash@saddress)
  3090  0002A4  C002  F016         	movff	(c:WriteBytesFlash@startaddr+1),(c:WriteBytesFlash@saddress+1)
  3091  0002A8  C003  F017         	movff	(c:WriteBytesFlash@startaddr+2),(c:WriteBytesFlash@saddress+2)
  3092  0002AC  C004  F018         	movff	(c:WriteBytesFlash@startaddr+3),(c:WriteBytesFlash@saddress+3)
  3093                           opt subtitle "HI-TECH Software Omniscient Code Generator (Lite mode) build 49521"
  3094                           
  3095  0002B0                     l1141:
  3096  0002B0  0E06               	movlw	06h
  3097  0002B2  6E09               	movwf	(??_WriteBytesFlash+0+0)&0ffh,c
  3098  0002B4                     u325:
  3099  0002B4  90D8               	bcf	status,0
  3100  0002B6  3204               	rrcf	((c:WriteBytesFlash@startaddr+3)),c
  3101  0002B8  3203               	rrcf	((c:WriteBytesFlash@startaddr+2)),c
  3102  0002BA  3202               	rrcf	((c:WriteBytesFlash@startaddr+1)),c
  3103  0002BC  3201               	rrcf	((c:WriteBytesFlash@startaddr)),c
  3104  0002BE  2E09               	decfsz	(??_WriteBytesFlash+0+0)&0ffh,c
  3105  0002C0  D7F9               	goto	u325
  3106                           opt subtitle "HI-TECH Software Omniscient Code Generator (Lite mode) build 49521"
  3107                           
  3108                           opt pagewidth 120
  3109  0002C2                     l1143:
  3110  0002C2  0E06               	movlw	06h
  3111  0002C4                     u335:
  3112  0002C4  90D8               	bcf	status,0
  3113  0002C6  3601               	rlcf	((c:WriteBytesFlash@startaddr)),c
  3114  0002C8  3602               	rlcf	((c:WriteBytesFlash@startaddr+1)),c
  3115  0002CA  3603               	rlcf	((c:WriteBytesFlash@startaddr+2)),c
  3116  0002CC  3604               	rlcf	((c:WriteBytesFlash@startaddr+3)),c
  3117  0002CE  2EE8               	decfsz	wreg
  3118  0002D0  D7F9               	goto	u335
  3119                           opt subtitle "HI-TECH Software Omniscient Code Generator (Lite mode) build 49521"
  3120                           
  3121  0002D2                     l1145:
  3122  0002D2  0E40               	movlw	040h
  3123  0002D4  2601               	addwf	((c:WriteBytesFlash@startaddr)),c
  3124  0002D6  0E00               	movlw	0
  3125  0002D8  2202               	addwfc	((c:WriteBytesFlash@startaddr+1)),c
  3126  0002DA  0E00               	movlw	0
  3127  0002DC  2203               	addwfc	((c:WriteBytesFlash@startaddr+2)),c
  3128  0002DE  0E00               	movlw	0
  3129  0002E0  2204               	addwfc	((c:WriteBytesFlash@startaddr+3)),c
  3130                           opt subtitle "HI-TECH Software Omniscient Code Generator (Lite mode) build 49521"
  3131                           
  3132  0002E2                     l1147:
  3133  0002E2  5015               	movf	((c:WriteBytesFlash@saddress)),c,w
  3134  0002E4  0800               	sublw	0
  3135  0002E6  2401               	addwf	((c:WriteBytesFlash@startaddr)),c,w
  3136  0002E8  6E10               	movwf	((c:WriteBytesFlash@write_byte)),c
  3137                           opt subtitle "HI-TECH Software Omniscient Code Generator (Lite mode) build 49521"
  3138  0002EA  D063               	goto	l1181
  3139                           opt subtitle "HI-TECH Software Omniscient Code Generator (Lite mode) build 49521"
  3140  0002EC                     l174:
  3141                           opt subtitle "HI-TECH Software Omniscient Code Generator (Lite mode) build 49521"
  3142  0002EC  C015  F012         	movff	(c:WriteBytesFlash@saddress),(c:WriteBytesFlash@startptr)
  3143  0002F0  C016  F013         	movff	(c:WriteBytesFlash@saddress+1),(c:WriteBytesFlash@startptr+1)
  3144  0002F4  C017  F014         	movff	(c:WriteBytesFlash@saddress+2),(c:WriteBytesFlash@startptr+2)
  3145                           opt subtitle "HI-TECH Software Omniscient Code Generator (Lite mode) build 49521"
  3146  0002F8  D021               	goto	l1159
  3147                           opt subtitle "HI-TECH Software Omniscient Code Generator (Lite mode) build 49521"
  3148  0002FA                     l176:
  3149                           opt subtitle "HI-TECH Software Omniscient Code Generator (Lite mode) build 49521"
  3150                           
  3151  0002FA                     l1149:
  3152  0002FA  C007  FFD9         	movff	(c:WriteBytesFlash@flash_array),fsr2l
  3153  0002FE  C008  FFDA         	movff	(c:WriteBytesFlash@flash_array+1),fsr2h
  3154  000302  50DF               	movf	indf2,w
  3155  000304  C012  FFF6         	movff	(c:WriteBytesFlash@startptr),tblptrl
  3156  000308  C013  FFF7         	movff	(c:WriteBytesFlash@startptr+1),tblptrh
  3157  00030C  C014  FFF8         	movff	(c:WriteBytesFlash@startptr+2),tblptru
  3158  000310  6EF5               	movwf	tablat
  3159  000312  000C               	tblwt	*
  3160                           opt subtitle "HI-TECH Software Omniscient Code Generator (Lite mode) build 49521"
  3161  000314                     l1151:
  3162  000314  4A07               	infsnz	((c:WriteBytesFlash@flash_array)),c
  3163  000316  2A08               	incf	((c:WriteBytesFlash@flash_array+1)),c
  3164                           opt subtitle "HI-TECH Software Omniscient Code Generator (Lite mode) build 49521"
  3165  000318                     l1153:
  3166  000318  0E01               	movlw	low(01h)
  3167  00031A  2612               	addwf	((c:WriteBytesFlash@startptr)),c
  3168  00031C  0E00               	movlw	high(01h)
  3169  00031E  2213               	addwfc	((c:WriteBytesFlash@startptr+1)),c
  3170  000320  0E00               	movlw	low highword(01h)
  3171  000322  2214               	addwfc	((c:WriteBytesFlash@startptr+2)),c
  3172                           opt subtitle "HI-TECH Software Omniscient Code Generator (Lite mode) build 49521"
  3173                           
  3174  000324                     l1155:
  3175  000324  0605               	decf	((c:WriteBytesFlash@num_bytes)),c
  3176  000326  A0D8               	btfss	status,0
  3177  000328  0606               	decf	((c:WriteBytesFlash@num_bytes+1)),c
  3178  00032A  5006               	movf	((c:WriteBytesFlash@num_bytes+1))&0ffh,w
  3179  00032C  1005               	iorwf ((c:WriteBytesFlash@num_bytes))&0ffh,w
  3180                           opt subtitle "HI-TECH Software Omniscient Code Generator (Lite mode) build 49521"
  3181  00032E  A4D8               	btfss	status,2
  3182  000330  D001               	goto	u341
  3183  000332  D001               	goto	u340
  3184  000334                     u341:
  3185  000334  D003               	goto	l1159
  3186  000336                     u340:
  3187  000336  D008               	goto	l178
  3188                           opt subtitle "HI-TECH Software Omniscient Code Generator (Lite mode) build 49521"
  3189  000338                     l1157:
  3190  000338  D007               	goto	l178
  3191                           opt subtitle "HI-TECH Software Omniscient Code Generator (Lite mode) build 49521"
  3192  00033A                     l177:
  3193  00033A  D000               	goto	l1159
  3194                           opt subtitle "HI-TECH Software Omniscient Code Generator (Lite mode) build 49521"
  3195                           
  3196  00033C                     l175:
  3197                           opt subtitle "HI-TECH Software Omniscient Code Generator (Lite mode) build 49521"
  3198                           
  3199  00033C                     l1159:
  3200  00033C  0610               	decf	((c:WriteBytesFlash@write_byte)),c
  3201  00033E  2810               	incf	((c:WriteBytesFlash@write_byte))&0ffh,w
  3202                           opt subtitle "HI-TECH Software Omniscient Code Generator (Lite mode) build 49521"
  3203  000340  A4D8               	btfss	status,2
  3204  000342  D001               	goto	u351
  3205  000344  D001               	goto	u350
  3206  000346                     u351:
  3207  000346  D7D9               	goto	l1149
  3208  000348                     u350:
  3209                           opt subtitle "HI-TECH Software Omniscient Code Generator (Lite mode) build 49521"
  3210  000348                     l178:
  3211                           opt subtitle "HI-TECH Software Omniscient Code Generator (Lite mode) build 49521"
  3212  000348  C012  F00D         	movff	(c:WriteBytesFlash@startptr),(c:WriteBytesFlash@saveptr)
  3213  00034C  C013  F00E         	movff	(c:WriteBytesFlash@startptr+1),(c:WriteBytesFlash@saveptr+1)
  3214  000350  C014  F00F         	movff	(c:WriteBytesFlash@startptr+2),(c:WriteBytesFlash@saveptr+2)
  3215                           opt subtitle "HI-TECH Software Omniscient Code Generator (Lite mode) build 49521"
  3216  000354  C015  F012         	movff	(c:WriteBytesFlash@saddress),(c:WriteBytesFlash@startptr)
  3217  000358  C016  F013         	movff	(c:WriteBytesFlash@saddress+1),(c:WriteBytesFlash@startptr+1)
  3218  00035C  C017  F014         	movff	(c:WriteBytesFlash@saddress+2),(c:WriteBytesFlash@startptr+2)
  3219                           opt subtitle "HI-TECH Software Omniscient Code Generator (Lite mode) build 49521"
  3220  000360  8E7F               	bsf	((c:3967)),c,7	;volatile
  3221                           opt subtitle "HI-TECH Software Omniscient Code Generator (Lite mode) build 49521"
  3222  000362  9C7F               	bcf	((c:3967)),c,6	;volatile
  3223                           opt subtitle "HI-TECH Software Omniscient Code Generator (Lite mode) build 49521"
  3224  000364  847F               	bsf	((c:3967)),c,2	;volatile
  3225                           opt subtitle "HI-TECH Software Omniscient Code Generator (Lite mode) build 49521"
  3226                           
  3227  000366  AEF2               	btfss	((c:4082)),c,7	;volatile
  3228  000368  D001               	goto	u361
  3229  00036A  D001               	goto	u360
  3230  00036C                     u361:
  3231  00036C  D006               	goto	l1165
  3232  00036E                     u360:
  3233                           opt subtitle "HI-TECH Software Omniscient Code Generator (Lite mode) build 49521"
  3234                           
  3235  00036E                     l1161:
  3236  00036E  9EF2               	bcf	((c:4082)),c,7	;volatile
  3237                           opt subtitle "HI-TECH Software Omniscient Code Generator (Lite mode) build 49521"
  3238                           
  3239  000370                     l1163:
  3240  000370  6E09               	movwf	(??_WriteBytesFlash+0+0)&0ffh,c
  3241  000372  0E01               	movlw	low(01h)
  3242  000374  6E11               	movwf	((c:WriteBytesFlash@flag)),c
  3243  000376  5009               	movf	(??_WriteBytesFlash+0+0)&0ffh,c,w
  3244  000378  D000               	goto	l1165
  3245                           opt subtitle "HI-TECH Software Omniscient Code Generator (Lite mode) build 49521"
  3246                           
  3247  00037A                     l179:
  3248                           opt subtitle "HI-TECH Software Omniscient Code Generator (Lite mode) build 49521"
  3249                           
  3250  00037A                     l1165:
  3251  00037A  0E55               	movlw	low(055h)
  3252  00037C  6E7E               	movwf	((c:3966)),c	;volatile
  3253                           opt subtitle "HI-TECH Software Omniscient Code Generator (Lite mode) build 49521"
  3254                           
  3255  00037E                     l1167:
  3256  00037E  0EAA               	movlw	low(0AAh)
  3257  000380  6E7E               	movwf	((c:3966)),c	;volatile
  3258                           opt subtitle "HI-TECH Software Omniscient Code Generator (Lite mode) build 49521"
  3259                           
  3260  000382                     l1169:
  3261  000382  827F               	bsf	((c:3967)),c,1	;volatile
  3262                           opt subtitle "HI-TECH Software Omniscient Code Generator (Lite mode) build 49521"
  3263                           
  3264  000384                     l1171:
  3265  000384  947F               	bcf	((c:3967)),c,2	;volatile
  3266                           opt subtitle "HI-TECH Software Omniscient Code Generator (Lite mode) build 49521"
  3267                           
  3268  000386                     l1173:
  3269  000386  5011               	movf	((c:WriteBytesFlash@flag)),c,w
  3270  000388  B4D8               	btfsc	status,2
  3271  00038A  D001               	goto	u371
  3272  00038C  D001               	goto	u370
  3273  00038E                     u371:
  3274  00038E  D005               	goto	l180
  3275  000390                     u370:
  3276                           opt subtitle "HI-TECH Software Omniscient Code Generator (Lite mode) build 49521"
  3277                           
  3278  000390                     l1175:
  3279  000390  8EF2               	bsf	((c:4082)),c,7	;volatile
  3280                           opt subtitle "HI-TECH Software Omniscient Code Generator (Lite mode) build 49521"
  3281                           
  3282  000392                     l1177:
  3283  000392  6E09               	movwf	(??_WriteBytesFlash+0+0)&0ffh,c
  3284  000394  0E00               	movlw	low(0)
  3285  000396  6E11               	movwf	((c:WriteBytesFlash@flag)),c
  3286  000398  5009               	movf	(??_WriteBytesFlash+0+0)&0ffh,c,w
  3287                           opt subtitle "HI-TECH Software Omniscient Code Generator (Lite mode) build 49521"
  3288                           
  3289  00039A                     l180:
  3290                           opt subtitle "HI-TECH Software Omniscient Code Generator (Lite mode) build 49521"
  3291  00039A  6E09               	movwf	(??_WriteBytesFlash+0+0)&0ffh,c
  3292  00039C  0E40               	movlw	low(040h)
  3293  00039E  6E10               	movwf	((c:WriteBytesFlash@write_byte)),c
  3294  0003A0  5009               	movf	(??_WriteBytesFlash+0+0)&0ffh,c,w
  3295                           opt subtitle "HI-TECH Software Omniscient Code Generator (Lite mode) build 49521"
  3296                           
  3297  0003A2                     l1179:
  3298  0003A2  500D               	movf	((c:WriteBytesFlash@saveptr)),c,w
  3299  0003A4  6E15               	movwf	((c:WriteBytesFlash@saddress)),c
  3300  0003A6  500E               	movf	((c:WriteBytesFlash@saveptr+1)),c,w
  3301  0003A8  6E16               	movwf	1+((c:WriteBytesFlash@saddress)),c
  3302                           opt subtitle "HI-TECH Software Omniscient Code Generator (Lite mode) build 49521"
  3303  0003AA  500F               	movf	((c:WriteBytesFlash@saveptr+2)),c,w
  3304  0003AC  6E17               	movwf	2+((c:WriteBytesFlash@saddress)),c
  3305                           opt subtitle "HI-TECH Software Omniscient Code Generator (Lite mode) build 49521"
  3306  0003AE  6A18               	clrf	3+((c:WriteBytesFlash@saddress)),c
  3307  0003B0  D000               	goto	l1181
  3308                           opt subtitle "HI-TECH Software Omniscient Code Generator (Lite mode) build 49521"
  3309                           
  3310  0003B2                     l173:
  3311                           opt subtitle "HI-TECH Software Omniscient Code Generator (Lite mode) build 49521"
  3312                           
  3313  0003B2                     l1181:
  3314  0003B2  5006               	movf	((c:WriteBytesFlash@num_bytes+1)),c,w
  3315  0003B4  1005               	iorwf ((c:WriteBytesFlash@num_bytes)),c,w
  3316                           opt subtitle "HI-TECH Software Omniscient Code Generator (Lite mode) build 49521"
  3317  0003B6  A4D8               	btfss	status,2
  3318  0003B8  D001               	goto	u381
  3319  0003BA  D001               	goto	u380
  3320  0003BC                     u381:
  3321  0003BC  D797               	goto	l174
  3322  0003BE                     u380:
  3323  0003BE  D000               	goto	l182
  3324                           opt subtitle "HI-TECH Software Omniscient Code Generator (Lite mode) build 49521"
  3325  0003C0                     l181:
  3326                           opt subtitle "HI-TECH Software Omniscient Code Generator (Lite mode) build 49521"
  3327                           
  3328  0003C0                     l182:
  3329  0003C0  0012               	return
  3330                           opt subtitle "HI-TECH Software Omniscient Code Generator (Lite mode) build 49521"
  3331                           
  3332  0003C2                     	__end_of_WriteBytesFlash:
  3333                           opt subtitle "HI-TECH Software Omniscient Code Generator (Lite mode) build 49521"
  3334                           
  3335                           opt pagewidth 120
  3336                           
  3337                           	opt lm
  3338                           
  3339                           	processor	18F26K80
  3340                           porta	equ	0F80h
  3341                           portb	equ	0F81h
  3342                           portc	equ	0F82h
  3343                           portd	equ	0F83h
  3344                           porte	equ	0F84h
  3345                           lata	equ	0F89h
  3346                           latb	equ	0F8Ah
  3347                           latc	equ	0F8Bh
  3348                           latd	equ	0F8Ch
  3349                           late	equ	0F8Dh
  3350                           trisa	equ	0F92h
  3351                           trisb	equ	0F93h
  3352                           trisc	equ	0F94h
  3353                           trisd	equ	0F95h
  3354                           trise	equ	0F96h
  3355                           pie1	equ	0F9Dh
  3356                           pir1	equ	0F9Eh
  3357                           ipr1	equ	0F9Fh
  3358                           pie2	equ	0FA0h
  3359                           pir2	equ	0FA1h
  3360                           ipr2	equ	0FA2h
  3361                           t3con	equ	0FB1h
  3362                           tmr3l	equ	0FB2h
  3363                           tmr3h	equ	0FB3h
  3364                           ccp1con	equ	0FBDh
  3365                           ccpr1l	equ	0FBEh
  3366  0003E4                     __ptext5:
  3367                           opt subtitle "HI-TECH Software Omniscient Code Generator (Lite mode) build 49521"
  3368                           
  3369                           opt pagewidth 120
  3370                           
  3371  0000                     	__size_of_ResetDevice	equ	__end_of_ResetDevice-_ResetDevice
  3372                           opt subtitle "HI-TECH Software Omniscient Code Generator (Lite mode) build 49521"
  3373  0003E4                     _ResetDevice:
  3374                           opt subtitle "HI-TECH Software Omniscient Code Generator (Lite mode) build 49521"
  3375                           
  3376                           opt pagewidth 120
  3377  0003E4                     l891:
  3378                           opt subtitle "HI-TECH Software Omniscient Code Generator (Lite mode) build 49521"
  3379  0003E4  EF00 F006          goto 0xC00 ;# 
  3380                           opt subtitle "HI-TECH Software Omniscient Code Generator (Lite mode) build 49521"
  3381                           
  3382                           opt pagewidth 120
  3383  0003E8                     l131:
  3384  0003E8  0012               	return
  3385                           opt subtitle "HI-TECH Software Omniscient Code Generator (Lite mode) build 49521"
  3386                           
  3387  0003EA                     	__end_of_ResetDevice:
  3388                           opt subtitle "HI-TECH Software Omniscient Code Generator (Lite mode) build 49521"
  3389                           
  3390                           opt pagewidth 120
  3391                           
  3392                           	opt lm
  3393                           
  3394                           	processor	18F26K80
  3395                           porta	equ	0F80h
  3396                           portb	equ	0F81h
  3397                           portc	equ	0F82h
  3398                           portd	equ	0F83h
  3399                           porte	equ	0F84h
  3400                           lata	equ	0F89h
  3401                           latb	equ	0F8Ah
  3402                           latc	equ	0F8Bh
  3403                           latd	equ	0F8Ch
  3404                           late	equ	0F8Dh
  3405                           trisa	equ	0F92h
  3406                           trisb	equ	0F93h
  3407                           trisc	equ	0F94h
  3408                           trisd	equ	0F95h
  3409                           trise	equ	0F96h
  3410                           pie1	equ	0F9Dh
  3411                           pir1	equ	0F9Eh
  3412                           ipr1	equ	0F9Fh
  3413                           pie2	equ	0FA0h
  3414                           pir2	equ	0FA1h
  3415                           ipr2	equ	0FA2h
  3416                           t3con	equ	0FB1h
  3417                           tmr3l	equ	0FB2h
  3418                           tmr3h	equ	0FB3h
  3419                           ccp1con	equ	0FBDh
  3420                           ccpr1l	equ	0FBEh
  3421                           ccpr1h	equ	0FBFh
  3422                           adcon1	equ	0FC1h
  3423                           adcon0	equ	0FC2h
  3424  0004DE                     __ptext6:
  3425                           opt subtitle "HI-TECH Software Omniscient Code Generator (Lite mode) build 49521"
  3426                           
  3427                           opt pagewidth 120
  3428                           
  3429  0000                     	__size_of___awdiv	equ	__end_of___awdiv-___awdiv
  3430                           opt subtitle "HI-TECH Software Omniscient Code Generator (Lite mode) build 49521"
  3431  0004DE                     ___awdiv:
  3432                           opt subtitle "HI-TECH Software Omniscient Code Generator (Lite mode) build 49521"
  3433                           
  3434                           opt pagewidth 120
  3435  0004DE                     l893:
  3436  0004DE  6E05               	movwf	(??___awdiv+0+0)&0ffh,c
  3437  0004E0  0E00               	movlw	low(0)
  3438  0004E2  6E07               	movwf	((c:___awdiv@sign)),c
  3439  0004E4  5005               	movf	(??___awdiv+0+0)&0ffh,c,w
  3440                           opt subtitle "HI-TECH Software Omniscient Code Generator (Lite mode) build 49521"
  3441                           
  3442  0004E6                     l895:
  3443  0004E6  AE04               	btfss	((c:___awdiv@divisor+1)),c,7
  3444  0004E8  D001               	goto	u111
  3445  0004EA  D001               	goto	u110
  3446  0004EC                     u111:
  3447  0004EC  D009               	goto	l901
  3448  0004EE                     u110:
  3449                           opt subtitle "HI-TECH Software Omniscient Code Generator (Lite mode) build 49521"
  3450                           
  3451  0004EE                     l897:
  3452  0004EE  6C03               	negf	((c:___awdiv@divisor)),c
  3453  0004F0  1E04               	comf	((c:___awdiv@divisor+1)),c
  3454  0004F2  B0D8               	btfsc	status,0
  3455  0004F4  2A04               	incf	((c:___awdiv@divisor+1)),c
  3456                           opt subtitle "HI-TECH Software Omniscient Code Generator (Lite mode) build 49521"
  3457                           
  3458  0004F6                     l899:
  3459  0004F6  6E05               	movwf	(??___awdiv+0+0)&0ffh,c
  3460  0004F8  0E01               	movlw	low(01h)
  3461  0004FA  6E07               	movwf	((c:___awdiv@sign)),c
  3462  0004FC  5005               	movf	(??___awdiv+0+0)&0ffh,c,w
  3463  0004FE  D000               	goto	l901
  3464                           opt subtitle "HI-TECH Software Omniscient Code Generator (Lite mode) build 49521"
  3465                           
  3466  000500                     l302:
  3467                           opt subtitle "HI-TECH Software Omniscient Code Generator (Lite mode) build 49521"
  3468                           
  3469  000500                     l901:
  3470  000500  AE02               	btfss	((c:___awdiv@dividend+1)),c,7
  3471  000502  D001               	goto	u121
  3472  000504  D001               	goto	u120
  3473  000506                     u121:
  3474  000506  D007               	goto	l907
  3475  000508                     u120:
  3476                           opt subtitle "HI-TECH Software Omniscient Code Generator (Lite mode) build 49521"
  3477                           
  3478  000508                     l903:
  3479  000508  6C01               	negf	((c:___awdiv@dividend)),c
  3480  00050A  1E02               	comf	((c:___awdiv@dividend+1)),c
  3481  00050C  B0D8               	btfsc	status,0
  3482  00050E  2A02               	incf	((c:___awdiv@dividend+1)),c
  3483                           opt subtitle "HI-TECH Software Omniscient Code Generator (Lite mode) build 49521"
  3484                           
  3485  000510                     l905:
  3486  000510  0E01               	movlw	(01h)&0ffh
  3487  000512  1A07               	xorwf	((c:___awdiv@sign)),c
  3488  000514  D000               	goto	l907
  3489                           opt subtitle "HI-TECH Software Omniscient Code Generator (Lite mode) build 49521"
  3490                           
  3491  000516                     l303:
  3492                           opt subtitle "HI-TECH Software Omniscient Code Generator (Lite mode) build 49521"
  3493                           
  3494  000516                     l907:
  3495  000516  0E00               	movlw	high(0)
  3496  000518  6E09               	movwf	((c:___awdiv@quotient+1)),c
  3497  00051A  0E00               	movlw	low(0)
  3498  00051C  6E08               	movwf	((c:___awdiv@quotient)),c
  3499                           opt subtitle "HI-TECH Software Omniscient Code Generator (Lite mode) build 49521"
  3500                           
  3501  00051E                     l909:
  3502  00051E  5004               	movf	((c:___awdiv@divisor+1)),c,w
  3503  000520  1003               	iorwf ((c:___awdiv@divisor)),c,w
  3504                           opt subtitle "HI-TECH Software Omniscient Code Generator (Lite mode) build 49521"
  3505  000522  B4D8               	btfsc	status,2
  3506  000524  D001               	goto	u131
  3507  000526  D001               	goto	u130
  3508  000528                     u131:
  3509  000528  D028               	goto	l929
  3510  00052A                     u130:
  3511                           opt subtitle "HI-TECH Software Omniscient Code Generator (Lite mode) build 49521"
  3512                           
  3513  00052A                     l911:
  3514  00052A  6E05               	movwf	(??___awdiv+0+0)&0ffh,c
  3515  00052C  0E01               	movlw	low(01h)
  3516  00052E  6E06               	movwf	((c:___awdiv@counter)),c
  3517  000530  5005               	movf	(??___awdiv+0+0)&0ffh,c,w
  3518                           opt subtitle "HI-TECH Software Omniscient Code Generator (Lite mode) build 49521"
  3519  000532  D005               	goto	l915
  3520                           opt subtitle "HI-TECH Software Omniscient Code Generator (Lite mode) build 49521"
  3521  000534                     l306:
  3522                           opt subtitle "HI-TECH Software Omniscient Code Generator (Lite mode) build 49521"
  3523                           
  3524  000534                     l913:
  3525  000534  90D8               	bcf	status,0
  3526  000536  3603               	rlcf	((c:___awdiv@divisor)),c
  3527  000538  3604               	rlcf	((c:___awdiv@divisor+1)),c
  3528                           opt subtitle "HI-TECH Software Omniscient Code Generator (Lite mode) build 49521"
  3529  00053A  2A06               	incf	((c:___awdiv@counter)),c
  3530  00053C  D000               	goto	l915
  3531                           opt subtitle "HI-TECH Software Omniscient Code Generator (Lite mode) build 49521"
  3532                           
  3533  00053E                     l305:
  3534                           opt subtitle "HI-TECH Software Omniscient Code Generator (Lite mode) build 49521"
  3535                           
  3536  00053E                     l915:
  3537                           opt subtitle "HI-TECH Software Omniscient Code Generator (Lite mode) build 49521"
  3538  00053E  AE04               	btfss	((c:___awdiv@divisor+1)),c,(15)&7
  3539  000540  D001               	goto	u141
  3540  000542  D001               	goto	u140
  3541  000544                     u141:
  3542  000544  D7F7               	goto	l913
  3543  000546                     u140:
  3544  000546  D001               	goto	l917
  3545                           opt subtitle "HI-TECH Software Omniscient Code Generator (Lite mode) build 49521"
  3546  000548                     l307:
  3547  000548  D000               	goto	l917
  3548                           opt subtitle "HI-TECH Software Omniscient Code Generator (Lite mode) build 49521"
  3549                           
  3550  00054A                     l308:
  3551                           opt subtitle "HI-TECH Software Omniscient Code Generator (Lite mode) build 49521"
  3552                           
  3553  00054A                     l917:
  3554  00054A  90D8               	bcf	status,0
  3555  00054C  3608               	rlcf	((c:___awdiv@quotient)),c
  3556  00054E  3609               	rlcf	((c:___awdiv@quotient+1)),c
  3557                           opt subtitle "HI-TECH Software Omniscient Code Generator (Lite mode) build 49521"
  3558                           
  3559  000550                     l919:
  3560  000550  5003               	movf	((c:___awdiv@divisor)),c,w
  3561  000552  5C01               	subwf	((c:___awdiv@dividend)),c,w
  3562  000554  5004               	movf	((c:___awdiv@divisor+1)),c,w
  3563  000556  5802               	subwfb	((c:___awdiv@dividend+1)),c,w
  3564  000558  A0D8               	btfss	status,0
  3565  00055A  D001               	goto	u151
  3566  00055C  D001               	goto	u150
  3567  00055E                     u151:
  3568  00055E  D006               	goto	l925
  3569  000560                     u150:
  3570                           opt subtitle "HI-TECH Software Omniscient Code Generator (Lite mode) build 49521"
  3571                           
  3572  000560                     l921:
  3573  000560  5003               	movf	((c:___awdiv@divisor)),c,w
  3574  000562  5E01               	subwf	((c:___awdiv@dividend)),c
  3575  000564  5004               	movf	((c:___awdiv@divisor+1)),c,w
  3576  000566  5A02               	subwfb	((c:___awdiv@dividend+1)),c
  3577                           opt subtitle "HI-TECH Software Omniscient Code Generator (Lite mode) build 49521"
  3578                           
  3579                           opt pagewidth 120
  3580  000568                     l923:
  3581  000568  8008               	bsf	(0+(0/8)+(c:___awdiv@quotient)),c,(0)&7
  3582  00056A  D000               	goto	l925
  3583                           opt subtitle "HI-TECH Software Omniscient Code Generator (Lite mode) build 49521"
  3584                           
  3585  00056C                     l309:
  3586                           opt subtitle "HI-TECH Software Omniscient Code Generator (Lite mode) build 49521"
  3587                           
  3588  00056C                     l925:
  3589  00056C  90D8               	bcf	status,0
  3590  00056E  3204               	rrcf	((c:___awdiv@divisor+1)),c
  3591  000570  3203               	rrcf	((c:___awdiv@divisor)),c
  3592                           opt subtitle "HI-TECH Software Omniscient Code Generator (Lite mode) build 49521"
  3593                           
  3594  000572                     l927:
  3595  000572  2E06               	decfsz	((c:___awdiv@counter)),c
  3596                           opt subtitle "HI-TECH Software Omniscient Code Generator (Lite mode) build 49521"
  3597  000574  D7EA               	goto	l917
  3598  000576  D001               	goto	l929
  3599                           opt subtitle "HI-TECH Software Omniscient Code Generator (Lite mode) build 49521"
  3600  000578                     l310:
  3601  000578  D000               	goto	l929
  3602                           opt subtitle "HI-TECH Software Omniscient Code Generator (Lite mode) build 49521"
  3603                           
  3604  00057A                     l304:
  3605                           opt subtitle "HI-TECH Software Omniscient Code Generator (Lite mode) build 49521"
  3606                           
  3607  00057A                     l929:
  3608  00057A  5007               	movf	((c:___awdiv@sign)),c,w
  3609  00057C  B4D8               	btfsc	status,2
  3610  00057E  D001               	goto	u161
  3611  000580  D001               	goto	u160
  3612  000582                     u161:
  3613  000582  D005               	goto	l933
  3614  000584                     u160:
  3615                           opt subtitle "HI-TECH Software Omniscient Code Generator (Lite mode) build 49521"
  3616                           
  3617  000584                     l931:
  3618  000584  6C08               	negf	((c:___awdiv@quotient)),c
  3619  000586  1E09               	comf	((c:___awdiv@quotient+1)),c
  3620  000588  B0D8               	btfsc	status,0
  3621  00058A  2A09               	incf	((c:___awdiv@quotient+1)),c
  3622  00058C  D000               	goto	l933
  3623                           opt subtitle "HI-TECH Software Omniscient Code Generator (Lite mode) build 49521"
  3624  00058E                     l311:
  3625                           opt subtitle "HI-TECH Software Omniscient Code Generator (Lite mode) build 49521"
  3626                           
  3627  00058E                     l933:
  3628  00058E  C008  F001         	movff	(c:___awdiv@quotient),(c:?___awdiv)
  3629  000592  C009  F002         	movff	(c:___awdiv@quotient+1),(c:?___awdiv+1)
  3630  000596  D000               	goto	l312
  3631                           opt subtitle "HI-TECH Software Omniscient Code Generator (Lite mode) build 49521"
  3632  000598                     l935:
  3633                           opt subtitle "HI-TECH Software Omniscient Code Generator (Lite mode) build 49521"
  3634                           
  3635  000598                     l312:
  3636  000598  0012               	return
  3637                           opt subtitle "HI-TECH Software Omniscient Code Generator (Lite mode) build 49521"
  3638                           
  3639  00059A                     	__end_of___awdiv:
  3640                           opt subtitle "HI-TECH Software Omniscient Code Generator (Lite mode) build 49521"
  3641                           
  3642  0000                     __activetblptr	EQU	2
  3643                           opt subtitle "HI-TECH Software Omniscient Code Generator (Lite mode) build 49521"
  3644                           
  3645                           opt pagewidth 120
  3646  000000                     __ptext7:
  3647                           opt subtitle "HI-TECH Software Omniscient Code Generator (Lite mode) build 49521"
  3648                           
  3649                           opt pagewidth 120
  3650                           
  3651                           	opt lm
  3652  0000                     __Lparam	EQU	__Lrparam
  3653  0000                     __Hparam	EQU	__Hrparam


Data Sizes:
    Strings     0
    Constant    0
    Data        0
    BSS         95
    Persistent  0
    Stack       0

Auto Spaces:
    Space          Size  Autos    Used
    COMRAM           95     36      59
    BANK0           160      0      72
    BANK1           256      0       0
    BANK2           256      0       0
    BANK3           256      0       0
    BANK4           256      0       0
    BANK5           256      0       0
    BANK6           256      0       0
    BANK7           256      0       0
    BANK8           256      0       0
    BANK9           256      0       0
    BANK10          256      0       0
    BANK11          256      0       0
    BANK12          256      0       0
    BANK13          256      0       0
    BANK14           65      0       0

Pointer List with Targets:

    ?___awdiv	int  size(2) Largest target is 0

    WriteBytesFlash@saveptr	PTR unsigned char  size(3) Largest target is 2047
		 -> ROM(CODE[2047]), 

    WriteBytesFlash@flash_array	PTR unsigned char  size(2) Largest target is 72
		 -> buforCAN(BANK0[72]), 

    WriteBytesFlash@startptr	PTR unsigned char  size(3) Largest target is 2047
		 -> ROM(CODE[2047]), 

    OdbierzRamke@message	PTR struct . size(2) Largest target is 17
		 -> canRxMessage(COMRAM[17]), 

    OdbierzRamke@pointerU8	PTR unsigned char  size(2) Largest target is 1
		 -> B5CON(DATA[1]), B4CON(DATA[1]), B3CON(DATA[1]), B2CON(DATA[1]), 
		 -> B1CON(DATA[1]), B0CON(DATA[1]), RXB1CON(DATA[1]), RXB0CON(DATA[1]), 


Critical Paths under _main in COMRAM

    _main->_OdbierzRamke
    _OdbierzRamke->_ZapiszDane
    _ZapiszDane->_WriteBytesFlash

Critical Paths under _main in BANK0

    None.

Critical Paths under _main in BANK1

    None.

Critical Paths under _main in BANK2

    None.

Critical Paths under _main in BANK3

    None.

Critical Paths under _main in BANK4

    None.

Critical Paths under _main in BANK5

    None.

Critical Paths under _main in BANK6

    None.

Critical Paths under _main in BANK7

    None.

Critical Paths under _main in BANK8

    None.

Critical Paths under _main in BANK9

    None.

Critical Paths under _main in BANK10

    None.

Critical Paths under _main in BANK11

    None.

Critical Paths under _main in BANK12

    None.

Critical Paths under _main in BANK13

    None.

Critical Paths under _main in BANK14

    None.

Call Graph Tables:

 ---------------------------------------------------------------------------------
 (Depth) Function   	        Calls       Base Space   Used Autos Params    Refs
 ---------------------------------------------------------------------------------
 (0) _main                                                 2     2      0    1308
                                             34 COMRAM     2     2      0
                       _OdbierzRamke
                        _ResetDevice
 ---------------------------------------------------------------------------------
 (1) _OdbierzRamke                                         7     5      2    1285
                                             27 COMRAM     7     5      2
                            ___awdiv
                         _ZapiszDane
 ---------------------------------------------------------------------------------
 (2) _ZapiszDane                                           3     3      0     552
                                             24 COMRAM     3     3      0
                         _EraseFlash
                    _WriteBytesFlash
 ---------------------------------------------------------------------------------
 (3) _EraseFlash                                          14     6      8     182
                                              0 COMRAM    14     6      8
 ---------------------------------------------------------------------------------
 (3) _WriteBytesFlash                                     24    16      8     302
                                              0 COMRAM    24    16      8
 ---------------------------------------------------------------------------------
 (1) _ResetDevice                                          0     0      0       0
 ---------------------------------------------------------------------------------
 (2) ___awdiv                                              9     5      4     195
                                              0 COMRAM     9     5      4
 ---------------------------------------------------------------------------------
 Estimated maximum stack depth 3
 ---------------------------------------------------------------------------------

 Call Graph Graphs:

 _main (ROOT)
   _OdbierzRamke
     ___awdiv
     _ZapiszDane
       _EraseFlash
       _WriteBytesFlash
   _ResetDevice

 Address spaces:
Name               Size   Autos  Total    Cost      Usage
BIGRAM             E40      0       0      35        0.0%
EEDATA             400      0       0       0        0.0%
BITBANK13          100      0       0      31        0.0%
BANK13             100      0       0      32        0.0%
BITBANK12          100      0       0      29        0.0%
BANK12             100      0       0      30        0.0%
BITBANK11          100      0       0      27        0.0%
BANK11             100      0       0      28        0.0%
BITBANK10          100      0       0      25        0.0%
BANK10             100      0       0      26        0.0%
BITBANK9           100      0       0      23        0.0%
BANK9              100      0       0      24        0.0%
BITBANK8           100      0       0      21        0.0%
BANK8              100      0       0      22        0.0%
BITBANK7           100      0       0      19        0.0%
BANK7              100      0       0      20        0.0%
BITBANK6           100      0       0      17        0.0%
BANK6              100      0       0      18        0.0%
BITBANK5           100      0       0      15        0.0%
BANK5              100      0       0      16        0.0%
BITBANK4           100      0       0      13        0.0%
BANK4              100      0       0      14        0.0%
BITBANK3           100      0       0      11        0.0%
BANK3              100      0       0      12        0.0%
BITBANK2           100      0       0       9        0.0%
BANK2              100      0       0      10        0.0%
BITBANK1           100      0       0       7        0.0%
BANK1              100      0       0       8        0.0%
BITBANK0            A0      0       0       4        0.0%
BANK0               A0      0      48       5       45.0%
BITCOMRAM           5F      0       0       0        0.0%
COMRAM              5F     24      3B       1       62.1%
BITBANK14           41      0       0      33        0.0%
BANK14              41      0       0      34        0.0%
BITSFR_2             0      0       0      40        0.0%
SFR_2                0      0       0      40        0.0%
BITSFR_1             0      0       0      40        0.0%
SFR_1                0      0       0      40        0.0%
BITSFR               0      0       0      40        0.0%
SFR                  0      0       0      40        0.0%
STACK                0      0       3       2        0.0%
NULL                 0      0       0       0        0.0%
ABS                  0      0      83       6        0.0%
DATA                 0      0      86       3        0.0%
CODE                 0      0       0       0        0.0%


Microchip Technology PIC18 Macro Assembler V1.12 build 49521 
Symbol Table                                                                                   Wed Feb 12 08:28:46 2014

              ___awdiv@sign 0007                 __CFG_BORV$1 000000                __CFG_CP0$OFF 000000  
              __CFG_CP1$OFF 000000                __CFG_CP2$OFF 000000                __CFG_CP3$OFF 000000  
                       l110 0680                         l111 0680                         l120 0056  
                       l121 0064                         l114 0090                         l122 0072  
                       l131 03E8                         l107 05DA                         l123 0080  
                       l115 0022                         l108 05A4                         l124 028E  
                       l116 00D6                         l140 07CC                         l109 05E8  
                       l125 028C                         l117 002C                         l141 07FA  
                       l310 0578                         l302 0500                         l126 0222  
                       l118 003A                         l142 07F8                         l134 06B8  
                       l311 058E                         l303 0516                         l127 0268  
                       l119 0048                         l143 07FC                         l135 06B6  
                       l312 0598                         l304 057A                         l160 046A  
                       l128 028E                         l144 07FC                         l136 06C8  
                       l305 053E                         l161 0492                         l137 07AC  
                       l306 0534                         l162 04AA                         l138 07AA  
                       l307 0548                         l163 04DC                         l139 07BA  
                       l308 054A                         l180 039A                         l164 04DC  
                       l309 056C                         l181 03C0                         l173 03B2  
                       l182 03C0                         l174 02EC                         l175 033C  
                       l159 04C2                         l176 02FA                         l177 033A  
                       l178 0348                         l179 037A                         l901 0500  
                       l911 052A                         l903 0508                         l921 0560  
                       l913 0534                         l905 0510                         l931 0584  
                       l923 0568                         l915 053E                         l907 0516  
                       l933 058E                         l925 056C                         l917 054A  
                       l909 051E                         l935 0598                         l927 0572  
                       l919 0550                         l929 057A                         l891 03E4  
                       l893 04DE                         l895 04E6                         l897 04EE  
                       l899 04F6                __CFG_CPB$OFF 000000                         u110 04EE  
                       u111 04EC                         u120 0508                         u121 0506  
                       u130 052A                         u131 0528                         u140 0546  
                       u300 04A6                         u141 0544                         u301 04A4  
                       u150 0560                         u310 04DA                         u151 055E  
                       u311 04D8                         u160 0584                         u400 05F6  
                       u161 0582                         u401 05F4                         u410 0600  
                       u411 05FC                         u340 0336                         u420 00EA  
                       u500 07F2                         u341 0334                         u325 02B4  
                       u421 00E8                         u501 07F0                         u350 0348  
                       u351 0346                         u335 02C4                         u360 036E  
                       u416 0602                         u440 01DE                         u361 036C  
                       u441 01DC                         u370 0390                         u290 0486  
                       u450 021E                __CFG_CPD$OFF 000000                         u371 038E  
                       u291 0484                         u451 021C                         u435 0198  
                       u380 03BE                         u460 0266                         u381 03BC  
                       u461 0264                         u390 05E6                         u470 06C6  
                       u391 05E4                         u471 06C4                         u480 07B8  
                       u481 07B6                         u490 07E0                         u491 07DE  
                       prod 000FF3                         wreg 000FE8                        l1121 0486  
                      l1201 0666                        l1131 049C                        l1123 0488  
                      l1203 0676                        l1211 003A                        l1141 02B0  
                      l1133 04A6                        l1125 0492                        l1117 0450  
                      l1221 0080                        l1213 0048                        l1205 0020  
                      l1301 06E4                        l1151 0314                        l1143 02C2  
                      l1135 04AA                        l1127 0496                        l1119 0458  
                      l1231 013C                        l1223 008E                        l1215 0056  
                      l1207 0022                        l1311 074C                        l1303 070C  
                      l1161 036E                        l1153 0318                        l1145 02D2  
                      l1137 0290                        l1129 049A                        l1241 01EE  
                      l1233 0184                        l1217 0064                        l1209 002C  
                      l1225 0090                        l1321 0782                        l1313 076A  
                      l1305 0712                        l1171 0384                        l1163 0370  
                      l1155 0324                        l1147 02E2                        l1139 02A0  
                      l1251 025A                        l1243 020C                        l1235 01B6  
                      l1219 0072                        l1227 00D6                        l1331 07CC  
                      l1323 0788                        l1315 0770                        l1307 0730  
                      l1173 0386                        l1165 037A                        l1157 0338  
                      l1149 02FA                        l1181 03B2                        l1261 0280  
                      l1253 025C                        l1245 0214                        l1237 01C6  
                      l1229 00EA                        l1333 07D8                        l1325 078E  
                      l1317 0776                        l1309 0736                        l1175 0390  
                      l1167 037E                        l1159 033C                        l1191 05E8  
                      l1183 059A                        l1247 0220                        l1255 0268  
                      l1239 01DE                        l1335 07E0                        l1327 07AC  
                      l1319 077C                        l1271 068C                        l1177 0392  
                      l1169 0382                        l1193 05EC                        l1185 05A4  
                      l1257 0274                        l1249 0222                        l1361 00A2  
                      l1337 07E4                        l1329 07BA                        l1281 0696  
                      l1273 068E                        l1179 03A2                        l1195 05F6  
                      l1187 05D6                        l1259 0278                        l1339 07F2  
                      l1291 06AE                        l1283 069A                        l1275 0690  
                      l1267 0682                        l1197 0612                        l1189 05DA  
                      l1293 06B0                        l1285 06A2                        l1277 0692  
                      l1269 068A                        l1199 063E                        l1295 06B8  
                      l1287 06A4                        l1279 0694                        l1297 06C8  
                      l1289 06A6                        l1299 06CC                        _TMR0 000FD6  
              __CFG_WRTB$ON 000000                __CFG_WRTC$ON 000000               ?_OdbierzRamke 001C  
                      _main 0682                        fsr1h 000FE2                        fsr2h 000FDA  
                      indf1 000FE7                        fsr1l 000FE1                        indf2 000FDF  
                      fsr2l 000FD9               __CFG_BOREN$ON 000000                        prodh 000FF4  
                      prodl 000FF3                        start 001C               __CFG_IESO$OFF 000000  
    WriteBytesFlash@saveptr 000D               __CFG_FOSC$HS1 000000               __CFG_MCLRE$ON 000000  
                     _B0CON 000E80                       _B1CON 000E90                       _B2CON 000EA0  
                     _B3CON 000EB0                       _B4CON 000EC0                       _B5CON 000ED0  
                     ?_main 0001             __end_of___awdiv 059A                       _T0CON 000FD5  
           ___awdiv@divisor 0003             ___awdiv@counter 0006                       _MSEL0 000E79  
                     _TRISA 000F92                       _TRISB 000F93                       _TRISC 000F94  
             __CFG_WRT0$OFF 000000               __CFG_WRT1$OFF 000000               __CFG_WRT2$OFF 000000  
             __CFG_WRT3$OFF 000000              __CFG_EBTR0$OFF 000000              __CFG_FCMEN$OFF 000000  
            __CFG_EBTR1$OFF 000000              __CFG_EBTR2$OFF 000000              __CFG_EBTR3$OFF 000000  
                _EraseFlash 0450               __CFG_WRTD$OFF 000000              __CFG_EBTRB$OFF 000000  
   WriteBytesFlash@saddress 0015                       tablat 000FF5              ??_OdbierzRamke 001E  
                     status 000FD8             __initialization 03C2     WriteBytesFlash@startptr 0012  
              __end_of_main 0800                _canRxMessage 002B                      ??_main 0023  
             __activetblptr 000002              __CFG_RETEN$OFF 000000   WriteBytesFlash@write_byte 0010  
             ??_ResetDevice 0001                      _CANCON 000F6F                      _EECON2 000F7E  
          ___awdiv@dividend 0001             __CFG_BBSIZ$BB1K 000000           EraseFlash@endaddr 0005  
                    _TMR0IF 007F92              __CFG_PWRTEN$ON 000000              __CFG_XINST$OFF 000000  
                 ??___awdiv 0005              __CFG_STVREN$ON 000000                      clear_0 03C8  
                    clear_1 03D4            ___awdiv@quotient 0008                      tblptrh 000FF7  
                    tblptrl 000FF6                      tblptru 000FF8                 ?_EraseFlash 0001  
                _ZapiszDane 059A                  _SourceAddr 0025                  __accesstop 0060  
   __end_of__initialization 03DA    WriteBytesFlash@num_bytes 0005         __end_of_ResetDevice 03EA  
            __pcstackCOMRAM 0001    WriteBytesFlash@startaddr 0001        __end_of_OdbierzRamke 0290  
                __pbssBANK0 0060             __CFG_PLLCFG$OFF 000000         __size_of_EraseFlash 008E  
  __size_of_WriteBytesFlash 0132                     _ECANCON 000F72                     _CANSTAT 000F6E  
             OdbierzRamke@i 0020            __CFG_CANMX$PORTC 000000                     _TBLPTRH 000FF7  
                   _TBLPTRL 000FF6                     _TBLPTRU 000FF8                     _RXB0CON 000F60  
           __CFG_WDTPS$1024 000000                     _RXB1CON 000F30                     _RXFCON0 000E46  
                   _RXFCON1 000E47                 _ResetDevice 03E4                 ?_ZapiszDane 0001  
                   __Hparam 0000                     __Lparam 0000                     ___awdiv 04DE  
                   __pcinit 03C2                     __ramtop 0F00                     __ptext0 0682  
                   __ptext1 0020                     __ptext2 059A                     __ptext3 0450  
                   __ptext4 0290                     __ptext5 03E4                     __ptext6 04DE  
                   __ptext7 0000                   _T0CONbits 000FD5                     _counter 002A  
         __CFG_MSSPMSK$MSK7 000000        end_of_initialization 03DA        EraseFlash@flash_addr 000B  
             __Lmediumconst 0000       OdbierzRamke@pointerU8 0021                     postdec2 000FDD  
     __size_of_OdbierzRamke 0270                     postinc0 000FEE                     postinc2 000FDE  
       __size_of_ZapiszDane 00E8           ??_WriteBytesFlash 0009                   _TRISAbits 000F92  
                 _TRISCbits 000F94                ??_EraseFlash 0009                _OdbierzRamke 0020  
               ZapiszDane@i 0029                 ZapiszDane@k 001B          __end_of_EraseFlash 04DE  
WriteBytesFlash@flash_array 0007         start_initialization 03C2         OdbierzRamke@message 001C  
               __pbssCOMRAM 0025                 _BRGCON1bits 000E43                 _BRGCON2bits 000E44  
               _BRGCON3bits 000E45                ?_ResetDevice 0001                ??_ZapiszDane 0019  
                  ?___awdiv 0001          __end_of_ZapiszDane 0682                    _LATAbits 000F89  
                  _RXF0EIDH 000EE2                    _RXF0EIDL 000EE3             _WriteBytesFlash 0290  
                  _RXF0SIDH 000EE0                    _RXF0SIDL 000EE1                    _RXM0EIDH 000EFA  
                  _RXM0EIDL 000EFB                    _RXFBCON0 000E71                    _RXFBCON1 000E72  
                  _RXFBCON2 000E73                    _RXFBCON3 000E74                    _RXFBCON4 000E75  
                  _RXFBCON5 000E76                    _RXFBCON6 000E77                    _RXFBCON7 000E78  
                  _RXM0SIDH 000EF8                    _RXM0SIDL 000EF9                   main@Delay 0024  
          __CFG_SOSCSEL$DIG 000000              EraseFlash@flag 000A                  _EECON1bits 000F7F  
                  __Hrparam 0000                    __Lrparam 0000         EraseFlash@startaddr 0001  
          __size_of___awdiv 00BC                _RXF0SIDLbits 000EE1                    _buforCAN 0060  
      __size_of_ResetDevice 0006               __size_of_main 017E     __end_of_WriteBytesFlash 03C2  
       WriteBytesFlash@flag 0011         __CFG_INTOSCSEL$HIGH 000000          __CFG_WDTEN$SWDTDIS 000000  
                _INTCONbits 000FF2         __CFG_BORPWR$ZPBORMV 000000            ?_WriteBytesFlash 0001  
